     1 00000000                                 [FORMAT "WCOFF"]
     2 00000000                                 [INSTRSET "i486p"]
     3 00000000                                 [OPTIMIZE 1]
     4 00000000                                 [OPTION 1]
     5 00000000                                 [BITS 32]
     6 00000000                                 	EXTERN	_task_now
     7 00000000                                 	EXTERN	_memman_alloc_4k
     8 00000000                                 	EXTERN	_timer_alloc
     9 00000000                                 	EXTERN	_timer_init
    10 00000000                                 	EXTERN	_timer_settime
    11 00000000                                 	EXTERN	_file_readfat
    12 00000000                                 	EXTERN	_io_cli
    13 00000000                                 	EXTERN	_fifo32_status
    14 00000000                                 	EXTERN	_fifo32_get
    15 00000000                                 	EXTERN	_io_sti
    16 00000000                                 	EXTERN	_boxfill8
    17 00000000                                 	EXTERN	_sheet_refresh
    18 00000000                                 	EXTERN	_task_sleep
    19 00000000                                 	EXTERN	_putfonts8_asc_sht
    20 00000000                                 	EXTERN	_memman_total
    21 00000000                                 	EXTERN	_sprintf
    22 00000000                                 	EXTERN	_timer_cancel
    23 00000000                                 	EXTERN	_memman_free_4k
    24 00000000                                 	EXTERN	_fifo32_put
    25 00000000                                 	EXTERN	_taskctl
    26 00000000                                 	EXTERN	_open_console
    27 00000000                                 	EXTERN	_sheet_slide
    28 00000000                                 	EXTERN	_sheet_updown
    29 00000000                                 	EXTERN	_open_constask
    30 00000000                                 	EXTERN	_file_search
    31 00000000                                 	EXTERN	_strncpy
    32 00000000                                 	EXTERN	_memset
    33 00000000                                 	EXTERN	_strcpy
    34 00000000                                 	EXTERN	_file_loadfile2
    35 00000000                                 	EXTERN	_set_segmdesc
    36 00000000                                 	EXTERN	_start_app
    37 00000000                                 	EXTERN	_timer_cancelall
    38 00000000                                 	EXTERN	_sheet_free
    39 00000000                                 	EXTERN	_io_in8
    40 00000000                                 	EXTERN	_io_out8
    41 00000000                                 	EXTERN	_timer_free
    42 00000000                                 	EXTERN	_memman_free
    43 00000000                                 	EXTERN	_memman_alloc
    44 00000000                                 	EXTERN	_memman_init
    45 00000000                                 	EXTERN	_putfonts8_asc
    46 00000000                                 	EXTERN	_sheet_alloc
    47 00000000                                 	EXTERN	_sheet_setbuf
    48 00000000                                 	EXTERN	_make_window8
    49 00000000                                 [FILE "console.c"]
    50                                          [SECTION .text]
    51 00000000                                 	GLOBAL	_console_task
    52 00000000                                 _console_task:
    53 00000000 55                              	PUSH	EBP
    54 00000001 89 E5                           	MOV	EBP,ESP
    55 00000003 57                              	PUSH	EDI
    56 00000004 56                              	PUSH	ESI
    57 00000005 53                              	PUSH	EBX
    58 00000006 81 EC 000000AC                  	SUB	ESP,172
    59 0000000C 8B 5D 08                        	MOV	EBX,DWORD [8+EBP]
    60 0000000F E8 [00000000]                   	CALL	_task_now
    61 00000014 68 00002D00                     	PUSH	11520
    62 00000019 89 C7                           	MOV	EDI,EAX
    63 0000001B 68 003C0000                     	PUSH	3932160
    64 00000020 E8 [00000000]                   	CALL	_memman_alloc_4k
    65 00000025 85 DB                           	TEST	EBX,EBX
    66 00000027 89 5D D4                        	MOV	DWORD [-44+EBP],EBX
    67 0000002A 89 85 FFFFFF50                  	MOV	DWORD [-176+EBP],EAX
    68 00000030 A1 00000FE8                     	MOV	EAX,DWORD [4072]
    69 00000035 89 85 FFFFFF4C                  	MOV	DWORD [-180+EBP],EAX
    70 0000003B 8B 45 10                        	MOV	EAX,DWORD [16+EBP]
    71 0000003E 89 45 E4                        	MOV	DWORD [-28+EBP],EAX
    72 00000041 8B 45 14                        	MOV	EAX,DWORD [20+EBP]
    73 00000044 89 45 E8                        	MOV	DWORD [-24+EBP],EAX
    74 00000047 8D 45 D4                        	LEA	EAX,DWORD [-44+EBP]
    75 0000004A 89 87 000000A4                  	MOV	DWORD [164+EDI],EAX
    76 00000050 8D 85 FFFFFF54                  	LEA	EAX,DWORD [-172+EBP]
    77 00000056 89 87 000000B8                  	MOV	DWORD [184+EDI],EAX
    78 0000005C 59                              	POP	ECX
    79 0000005D C7 45 D8 00000008               	MOV	DWORD [-40+EBP],8
    80 00000064 C7 45 DC 0000001C               	MOV	DWORD [-36+EBP],28
    81 0000006B C7 45 E0 FFFFFFFF               	MOV	DWORD [-32+EBP],-1
    82 00000072 5E                              	POP	ESI
    83 00000073 74 21                           	JE	L2
    84 00000075 E8 [00000000]                   	CALL	_timer_alloc
    85 0000007A 8D 57 10                        	LEA	EDX,DWORD [16+EDI]
    86 0000007D 6A 01                           	PUSH	1
    87 0000007F 52                              	PUSH	EDX
    88 00000080 89 45 EC                        	MOV	DWORD [-20+EBP],EAX
    89 00000083 50                              	PUSH	EAX
    90 00000084 E8 [00000000]                   	CALL	_timer_init
    91 00000089 6A 32                           	PUSH	50
    92 0000008B FF 75 EC                        	PUSH	DWORD [-20+EBP]
    93 0000008E E8 [00000000]                   	CALL	_timer_settime
    94 00000093 83 C4 14                        	ADD	ESP,20
    95 00000096                                 L2:
    96 00000096 68 00100200                     	PUSH	1049088
    97 0000009B BE 00000007                     	MOV	ESI,7
    98 000000A0 FF B5 FFFFFF50                  	PUSH	DWORD [-176+EBP]
    99 000000A6 E8 [00000000]                   	CALL	_file_readfat
   100 000000AB 58                              	POP	EAX
   101 000000AC 5A                              	POP	EDX
   102 000000AD 31 C0                           	XOR	EAX,EAX
   103 000000AF                                 L7:
   104 000000AF C7 84 05 FFFFFF74 00000000      	MOV	DWORD [-140+EBP+EAX*1],0
   105 000000BA 83 C0 0C                        	ADD	EAX,12
   106 000000BD 4E                              	DEC	ESI
   107 000000BE 79 EF                           	JNS	L7
   108 000000C0 8B 8D FFFFFF50                  	MOV	ECX,DWORD [-176+EBP]
   109 000000C6 8B 9D FFFFFF4C                  	MOV	EBX,DWORD [-180+EBP]
   110 000000CC 8D 85 FFFFFF74                  	LEA	EAX,DWORD [-140+EBP]
   111 000000D2 89 8F 000000B4                  	MOV	DWORD [180+EDI],ECX
   112 000000D8 89 87 000000B0                  	MOV	DWORD [176+EDI],EAX
   113 000000DE 8D 45 D4                        	LEA	EAX,DWORD [-44+EBP]
   114 000000E1 80 BB 00001000 FF               	CMP	BYTE [4096+EBX],-1
   115 000000E8 C6 87 000000BD 00               	MOV	BYTE [189+EDI],0
   116 000000EF 0F 95 87 000000BC               	SETNE	BYTE [188+EDI]
   117 000000F6 6A 01                           	PUSH	1
   118 000000F8 6A 3E                           	PUSH	62
   119 000000FA 50                              	PUSH	EAX
   120 000000FB E8 0000023B                     	CALL	_cons_putchar
   121 00000100 83 C4 0C                        	ADD	ESP,12
   122 00000103                                 L10:
   123 00000103 8D 5F 10                        	LEA	EBX,DWORD [16+EDI]
   124 00000106 E8 [00000000]                   	CALL	_io_cli
   125 0000010B 53                              	PUSH	EBX
   126 0000010C E8 [00000000]                   	CALL	_fifo32_status
   127 00000111 5E                              	POP	ESI
   128 00000112 85 C0                           	TEST	EAX,EAX
   129 00000114 0F 84 00000210                  	JE	L38
   130 0000011A 53                              	PUSH	EBX
   131 0000011B E8 [00000000]                   	CALL	_fifo32_get
   132 00000120 89 C6                           	MOV	ESI,EAX
   133 00000122 E8 [00000000]                   	CALL	_io_sti
   134 00000127 59                              	POP	ECX
   135 00000128 83 FE 01                        	CMP	ESI,1
   136 0000012B 0F 8E 000001A2                  	JLE	L39
   137 00000131                                 L15:
   138 00000131 83 FE 02                        	CMP	ESI,2
   139 00000134 0F 84 0000018D                  	JE	L40
   140 0000013A                                 L20:
   141 0000013A 83 FE 03                        	CMP	ESI,3
   142 0000013D 0F 84 00000152                  	JE	L41
   143 00000143                                 L21:
   144 00000143 83 FE 04                        	CMP	ESI,4
   145 00000146 0F 84 00000133                  	JE	L42
   146 0000014C                                 L23:
   147 0000014C 8D 86 FFFFFF00                  	LEA	EAX,DWORD [-256+ESI]
   148 00000152 89 85 FFFFFF48                  	MOV	DWORD [-184+EBP],EAX
   149 00000158 3D 000000FF                     	CMP	EAX,255
   150 0000015D 77 4E                           	JA	L24
   151 0000015F 81 FE 00000108                  	CMP	ESI,264
   152 00000165 0F 84 000000F4                  	JE	L43
   153 0000016B 81 FE 0000010A                  	CMP	ESI,266
   154 00000171 0F 84 00000089                  	JE	L44
   155 00000177 6B 45 E4 1E                     	IMUL	EAX,DWORD [-28+EBP],30
   156 0000017B 8B 4D D8                        	MOV	ECX,DWORD [-40+EBP]
   157 0000017E 39 C1                           	CMP	ECX,EAX
   158 00000180 7D 2B                           	JGE	L24
   159 00000182 89 C8                           	MOV	EAX,ECX
   160 00000184 BA 00000008                     	MOV	EDX,8
   161 00000189 89 D3                           	MOV	EBX,EDX
   162 0000018B 6A 01                           	PUSH	1
   163 0000018D 99                              	CDQ
   164 0000018E F7 FB                           	IDIV	EBX
   165 00000190 89 C1                           	MOV	ECX,EAX
   166 00000192 89 F0                           	MOV	EAX,ESI
   167 00000194 88 84 0D FFFFFF52               	MOV	BYTE [-174+EBP+ECX*1],AL
   168 0000019B 8D 45 D4                        	LEA	EAX,DWORD [-44+EBP]
   169 0000019E FF B5 FFFFFF48                  	PUSH	DWORD [-184+EBP]
   170 000001A4 50                              	PUSH	EAX
   171 000001A5                                 L36:
   172 000001A5 E8 00000191                     	CALL	_cons_putchar
   173 000001AA                                 L37:
   174 000001AA 83 C4 0C                        	ADD	ESP,12
   175 000001AD                                 L24:
   176 000001AD 8B 5D D4                        	MOV	EBX,DWORD [-44+EBP]
   177 000001B0 85 DB                           	TEST	EBX,EBX
   178 000001B2 0F 84 FFFFFF4B                  	JE	L10
   179 000001B8 83 7D E0 00                     	CMP	DWORD [-32+EBP],0
   180 000001BC 78 22                           	JS	L33
   181 000001BE 8B 4D DC                        	MOV	ECX,DWORD [-36+EBP]
   182 000001C1 8B 55 D8                        	MOV	EDX,DWORD [-40+EBP]
   183 000001C4 8D 41 0F                        	LEA	EAX,DWORD [15+ECX]
   184 000001C7 50                              	PUSH	EAX
   185 000001C8 8D 42 07                        	LEA	EAX,DWORD [7+EDX]
   186 000001CB 50                              	PUSH	EAX
   187 000001CC 51                              	PUSH	ECX
   188 000001CD 52                              	PUSH	EDX
   189 000001CE 0F B6 45 E0                     	MOVZX	EAX,BYTE [-32+EBP]
   190 000001D2 50                              	PUSH	EAX
   191 000001D3 FF 73 04                        	PUSH	DWORD [4+EBX]
   192 000001D6 FF 33                           	PUSH	DWORD [EBX]
   193 000001D8 E8 [00000000]                   	CALL	_boxfill8
   194 000001DD 83 C4 1C                        	ADD	ESP,28
   195 000001E0                                 L33:
   196 000001E0 8B 4D DC                        	MOV	ECX,DWORD [-36+EBP]
   197 000001E3 8B 55 D8                        	MOV	EDX,DWORD [-40+EBP]
   198 000001E6 8D 41 10                        	LEA	EAX,DWORD [16+ECX]
   199 000001E9 50                              	PUSH	EAX
   200 000001EA 8D 42 08                        	LEA	EAX,DWORD [8+EDX]
   201 000001ED 50                              	PUSH	EAX
   202 000001EE 51                              	PUSH	ECX
   203 000001EF 52                              	PUSH	EDX
   204 000001F0 FF 75 D4                        	PUSH	DWORD [-44+EBP]
   205 000001F3 E8 [00000000]                   	CALL	_sheet_refresh
   206 000001F8 83 C4 14                        	ADD	ESP,20
   207 000001FB E9 FFFFFF03                     	JMP	L10
   208 00000200                                 L44:
   209 00000200 6A 00                           	PUSH	0
   210 00000202 8D 5D D4                        	LEA	EBX,DWORD [-44+EBP]
   211 00000205 6A 20                           	PUSH	32
   212 00000207 53                              	PUSH	EBX
   213 00000208 E8 0000012E                     	CALL	_cons_putchar
   214 0000020D 53                              	PUSH	EBX
   215 0000020E 8B 45 D8                        	MOV	EAX,DWORD [-40+EBP]
   216 00000211 BA 00000008                     	MOV	EDX,8
   217 00000216 89 D1                           	MOV	ECX,EDX
   218 00000218 99                              	CDQ
   219 00000219 F7 F9                           	IDIV	ECX
   220 0000021B C6 84 05 FFFFFF52 00            	MOV	BYTE [-174+EBP+EAX*1],0
   221 00000223 E8 000001D2                     	CALL	_cons_newline
   222 00000228 8D 85 FFFFFF54                  	LEA	EAX,DWORD [-172+EBP]
   223 0000022E FF 75 0C                        	PUSH	DWORD [12+EBP]
   224 00000231 FF B5 FFFFFF50                  	PUSH	DWORD [-176+EBP]
   225 00000237 53                              	PUSH	EBX
   226 00000238 50                              	PUSH	EAX
   227 00000239 E8 00000366                     	CALL	_cons_runcmd
   228 0000023E 83 C4 20                        	ADD	ESP,32
   229 00000241 83 7D D4 00                     	CMP	DWORD [-44+EBP],0
   230 00000245 75 0E                           	JNE	L29
   231 00000247 FF B5 FFFFFF50                  	PUSH	DWORD [-176+EBP]
   232 0000024D 53                              	PUSH	EBX
   233 0000024E E8 00000836                     	CALL	_cmd_exit
   234 00000253 58                              	POP	EAX
   235 00000254 5A                              	POP	EDX
   236 00000255                                 L29:
   237 00000255 6A 01                           	PUSH	1
   238 00000257 6A 3E                           	PUSH	62
   239 00000259 53                              	PUSH	EBX
   240 0000025A E9 FFFFFF46                     	JMP	L36
   241 0000025F                                 L43:
   242 0000025F 83 7D D8 10                     	CMP	DWORD [-40+EBP],16
   243 00000263 0F 8E FFFFFF44                  	JLE	L24
   244 00000269 6A 00                           	PUSH	0
   245 0000026B 8D 45 D4                        	LEA	EAX,DWORD [-44+EBP]
   246 0000026E 6A 20                           	PUSH	32
   247 00000270 50                              	PUSH	EAX
   248 00000271 E8 000000C5                     	CALL	_cons_putchar
   249 00000276 83 6D D8 08                     	SUB	DWORD [-40+EBP],8
   250 0000027A E9 FFFFFF2B                     	JMP	L37
   251 0000027F                                 L42:
   252 0000027F FF B5 FFFFFF50                  	PUSH	DWORD [-176+EBP]
   253 00000285 8D 45 D4                        	LEA	EAX,DWORD [-44+EBP]
   254 00000288 50                              	PUSH	EAX
   255 00000289 E8 000007FB                     	CALL	_cmd_exit
   256 0000028E 59                              	POP	ECX
   257 0000028F 5B                              	POP	EBX
   258 00000290 E9 FFFFFEB7                     	JMP	L23
   259 00000295                                 L41:
   260 00000295 8B 5D D4                        	MOV	EBX,DWORD [-44+EBP]
   261 00000298 85 DB                           	TEST	EBX,EBX
   262 0000029A 74 1F                           	JE	L22
   263 0000029C 8B 4D DC                        	MOV	ECX,DWORD [-36+EBP]
   264 0000029F 8B 55 D8                        	MOV	EDX,DWORD [-40+EBP]
   265 000002A2 8D 41 0F                        	LEA	EAX,DWORD [15+ECX]
   266 000002A5 50                              	PUSH	EAX
   267 000002A6 8D 42 07                        	LEA	EAX,DWORD [7+EDX]
   268 000002A9 50                              	PUSH	EAX
   269 000002AA 51                              	PUSH	ECX
   270 000002AB 52                              	PUSH	EDX
   271 000002AC 6A 00                           	PUSH	0
   272 000002AE FF 73 04                        	PUSH	DWORD [4+EBX]
   273 000002B1 FF 33                           	PUSH	DWORD [EBX]
   274 000002B3 E8 [00000000]                   	CALL	_boxfill8
   275 000002B8 83 C4 1C                        	ADD	ESP,28
   276 000002BB                                 L22:
   277 000002BB C7 45 E0 FFFFFFFF               	MOV	DWORD [-32+EBP],-1
   278 000002C2 E9 FFFFFE7C                     	JMP	L21
   279 000002C7                                 L40:
   280 000002C7 C7 45 E0 00000007               	MOV	DWORD [-32+EBP],7
   281 000002CE E9 FFFFFE67                     	JMP	L20
   282 000002D3                                 L39:
   283 000002D3 83 7D D4 00                     	CMP	DWORD [-44+EBP],0
   284 000002D7 0F 84 FFFFFE54                  	JE	L15
   285 000002DD 85 F6                           	TEST	ESI,ESI
   286 000002DF 74 2C                           	JE	L16
   287 000002E1 6A 00                           	PUSH	0
   288 000002E3 53                              	PUSH	EBX
   289 000002E4 FF 75 EC                        	PUSH	DWORD [-20+EBP]
   290 000002E7 E8 [00000000]                   	CALL	_timer_init
   291 000002EC 83 C4 0C                        	ADD	ESP,12
   292 000002EF 83 7D E0 00                     	CMP	DWORD [-32+EBP],0
   293 000002F3 78 07                           	JS	L18
   294 000002F5 C7 45 E0 00000007               	MOV	DWORD [-32+EBP],7
   295 000002FC                                 L18:
   296 000002FC 6A 32                           	PUSH	50
   297 000002FE FF 75 EC                        	PUSH	DWORD [-20+EBP]
   298 00000301 E8 [00000000]                   	CALL	_timer_settime
   299 00000306 58                              	POP	EAX
   300 00000307 5A                              	POP	EDX
   301 00000308 E9 FFFFFE24                     	JMP	L15
   302 0000030D                                 L16:
   303 0000030D 6A 01                           	PUSH	1
   304 0000030F 53                              	PUSH	EBX
   305 00000310 FF 75 EC                        	PUSH	DWORD [-20+EBP]
   306 00000313 E8 [00000000]                   	CALL	_timer_init
   307 00000318 83 C4 0C                        	ADD	ESP,12
   308 0000031B 83 7D E0 00                     	CMP	DWORD [-32+EBP],0
   309 0000031F 78 DB                           	JS	L18
   310 00000321 C7 45 E0 00000000               	MOV	DWORD [-32+EBP],0
   311 00000328 EB D2                           	JMP	L18
   312 0000032A                                 L38:
   313 0000032A 57                              	PUSH	EDI
   314 0000032B E8 [00000000]                   	CALL	_task_sleep
   315 00000330 E8 [00000000]                   	CALL	_io_sti
   316 00000335 5B                              	POP	EBX
   317 00000336 E9 FFFFFDC8                     	JMP	L10
   318                                          [SECTION .data]
   319 00000000                                 LC0:
   320 00000000 20 00                           	DB	" ",0x00
   321                                          [SECTION .text]
   322 0000033B                                 	GLOBAL	_cons_putchar
   323 0000033B                                 _cons_putchar:
   324 0000033B 55                              	PUSH	EBP
   325 0000033C 89 E5                           	MOV	EBP,ESP
   326 0000033E 53                              	PUSH	EBX
   327 0000033F 50                              	PUSH	EAX
   328 00000340 8B 45 0C                        	MOV	EAX,DWORD [12+EBP]
   329 00000343 8A 55 10                        	MOV	DL,BYTE [16+EBP]
   330 00000346 8B 5D 08                        	MOV	EBX,DWORD [8+EBP]
   331 00000349 88 55 F9                        	MOV	BYTE [-7+EBP],DL
   332 0000034C 88 45 FA                        	MOV	BYTE [-6+EBP],AL
   333 0000034F 3C 09                           	CMP	AL,9
   334 00000351 C6 45 FB 00                     	MOV	BYTE [-5+EBP],0
   335 00000355 74 54                           	JE	L47
   336 00000357 3C 0A                           	CMP	AL,10
   337 00000359 74 2C                           	JE	L61
   338 0000035B 3C 0D                           	CMP	AL,13
   339 0000035D 74 23                           	JE	L45
   340 0000035F 8B 13                           	MOV	EDX,DWORD [EBX]
   341 00000361 85 D2                           	TEST	EDX,EDX
   342 00000363 75 2B                           	JNE	L62
   343 00000365                                 L58:
   344 00000365 80 7D F9 00                     	CMP	BYTE [-7+EBP],0
   345 00000369 74 17                           	JE	L45
   346 0000036B 8B 43 10                        	MOV	EAX,DWORD [16+EBX]
   347 0000036E 8B 53 04                        	MOV	EDX,DWORD [4+EBX]
   348 00000371 83 C2 08                        	ADD	EDX,8
   349 00000374 8D 04 C5 00000008               	LEA	EAX,DWORD [8+EAX*8]
   350 0000037B 89 53 04                        	MOV	DWORD [4+EBX],EDX
   351 0000037E 39 C2                           	CMP	EDX,EAX
   352 00000380 74 05                           	JE	L61
   353 00000382                                 L45:
   354 00000382 8B 5D FC                        	MOV	EBX,DWORD [-4+EBP]
   355 00000385 C9                              	LEAVE
   356 00000386 C3                              	RET
   357 00000387                                 L61:
   358 00000387 53                              	PUSH	EBX
   359 00000388 E8 0000006D                     	CALL	_cons_newline
   360 0000038D 58                              	POP	EAX
   361 0000038E EB F2                           	JMP	L45
   362 00000390                                 L62:
   363 00000390 6A 01                           	PUSH	1
   364 00000392 8D 45 FA                        	LEA	EAX,DWORD [-6+EBP]
   365 00000395 50                              	PUSH	EAX
   366 00000396 6A 00                           	PUSH	0
   367 00000398 6A 07                           	PUSH	7
   368 0000039A FF 73 08                        	PUSH	DWORD [8+EBX]
   369 0000039D FF 73 04                        	PUSH	DWORD [4+EBX]
   370 000003A0 52                              	PUSH	EDX
   371 000003A1 E8 [00000000]                   	CALL	_putfonts8_asc_sht
   372 000003A6 83 C4 1C                        	ADD	ESP,28
   373 000003A9 EB BA                           	JMP	L58
   374 000003AB                                 L47:
   375 000003AB 8B 03                           	MOV	EAX,DWORD [EBX]
   376 000003AD 85 C0                           	TEST	EAX,EAX
   377 000003AF 75 2D                           	JNE	L63
   378 000003B1                                 L50:
   379 000003B1 8B 43 10                        	MOV	EAX,DWORD [16+EBX]
   380 000003B4 8B 53 04                        	MOV	EDX,DWORD [4+EBX]
   381 000003B7 83 C2 08                        	ADD	EDX,8
   382 000003BA 8D 04 C5 00000008               	LEA	EAX,DWORD [8+EAX*8]
   383 000003C1 89 53 04                        	MOV	DWORD [4+EBX],EDX
   384 000003C4 39 C2                           	CMP	EDX,EAX
   385 000003C6 74 0D                           	JE	L64
   386 000003C8                                 L51:
   387 000003C8 8B 43 04                        	MOV	EAX,DWORD [4+EBX]
   388 000003CB 83 E8 08                        	SUB	EAX,8
   389 000003CE 83 E0 1F                        	AND	EAX,31
   390 000003D1 75 D8                           	JNE	L47
   391 000003D3 EB AD                           	JMP	L45
   392 000003D5                                 L64:
   393 000003D5 53                              	PUSH	EBX
   394 000003D6 E8 0000001F                     	CALL	_cons_newline
   395 000003DB 58                              	POP	EAX
   396 000003DC EB EA                           	JMP	L51
   397 000003DE                                 L63:
   398 000003DE 6A 01                           	PUSH	1
   399 000003E0 68 [00000000]                   	PUSH	LC0
   400 000003E5 6A 00                           	PUSH	0
   401 000003E7 6A 07                           	PUSH	7
   402 000003E9 FF 73 08                        	PUSH	DWORD [8+EBX]
   403 000003EC FF 73 04                        	PUSH	DWORD [4+EBX]
   404 000003EF 50                              	PUSH	EAX
   405 000003F0 E8 [00000000]                   	CALL	_putfonts8_asc_sht
   406 000003F5 83 C4 1C                        	ADD	ESP,28
   407 000003F8 EB B7                           	JMP	L50
   408 000003FA                                 	GLOBAL	_cons_newline
   409 000003FA                                 _cons_newline:
   410 000003FA 55                              	PUSH	EBP
   411 000003FB 89 E5                           	MOV	EBP,ESP
   412 000003FD 57                              	PUSH	EDI
   413 000003FE 56                              	PUSH	ESI
   414 000003FF 53                              	PUSH	EBX
   415 00000400 83 EC 0C                        	SUB	ESP,12
   416 00000403 8B 7D 08                        	MOV	EDI,DWORD [8+EBP]
   417 00000406 8B 07                           	MOV	EAX,DWORD [EDI]
   418 00000408 89 45 EC                        	MOV	DWORD [-20+EBP],EAX
   419 0000040B E8 [00000000]                   	CALL	_task_now
   420 00000410 89 45 E8                        	MOV	DWORD [-24+EBP],EAX
   421 00000413 8B 47 14                        	MOV	EAX,DWORD [20+EDI]
   422 00000416 C1 E0 04                        	SAL	EAX,4
   423 00000419 8D 50 0C                        	LEA	EDX,DWORD [12+EAX]
   424 0000041C 8B 47 08                        	MOV	EAX,DWORD [8+EDI]
   425 0000041F 39 D0                           	CMP	EAX,EDX
   426 00000421 7D 33                           	JGE	L66
   427 00000423 83 C0 10                        	ADD	EAX,16
   428 00000426 89 47 08                        	MOV	DWORD [8+EDI],EAX
   429 00000429                                 L67:
   430 00000429 8B 45 E8                        	MOV	EAX,DWORD [-24+EBP]
   431 0000042C C7 47 04 00000008               	MOV	DWORD [4+EDI],8
   432 00000433 80 B8 000000BC 01               	CMP	BYTE [188+EAX],1
   433 0000043A 74 08                           	JE	L98
   434 0000043C                                 L65:
   435 0000043C 8D 65 F4                        	LEA	ESP,DWORD [-12+EBP]
   436 0000043F 5B                              	POP	EBX
   437 00000440 5E                              	POP	ESI
   438 00000441 5F                              	POP	EDI
   439 00000442 5D                              	POP	EBP
   440 00000443 C3                              	RET
   441 00000444                                 L98:
   442 00000444 80 B8 000000BD 00               	CMP	BYTE [189+EAX],0
   443 0000044B 74 EF                           	JE	L65
   444 0000044D C7 47 04 00000010               	MOV	DWORD [4+EDI],16
   445 00000454 EB E6                           	JMP	L65
   446 00000456                                 L66:
   447 00000456 83 7D EC 00                     	CMP	DWORD [-20+EBP],0
   448 0000045A 74 CD                           	JE	L67
   449 0000045C C7 45 F0 0000001C               	MOV	DWORD [-16+EBP],28
   450 00000463 39 55 F0                        	CMP	DWORD [-16+EBP],EDX
   451 00000466 7D 59                           	JGE	L91
   452 00000468                                 L78:
   453 00000468 8B 47 10                        	MOV	EAX,DWORD [16+EDI]
   454 0000046B BE 00000008                     	MOV	ESI,8
   455 00000470 8D 04 C5 00000008               	LEA	EAX,DWORD [8+EAX*8]
   456 00000477 39 C6                           	CMP	ESI,EAX
   457 00000479 7D 35                           	JGE	L93
   458 0000047B                                 L77:
   459 0000047B 8B 45 EC                        	MOV	EAX,DWORD [-20+EBP]
   460 0000047E 8B 55 EC                        	MOV	EDX,DWORD [-20+EBP]
   461 00000481 8B 18                           	MOV	EBX,DWORD [EAX]
   462 00000483 8B 4A 04                        	MOV	ECX,DWORD [4+EDX]
   463 00000486 8B 45 F0                        	MOV	EAX,DWORD [-16+EBP]
   464 00000489 8B 55 F0                        	MOV	EDX,DWORD [-16+EBP]
   465 0000048C 83 C0 10                        	ADD	EAX,16
   466 0000048F 0F AF C1                        	IMUL	EAX,ECX
   467 00000492 0F AF D1                        	IMUL	EDX,ECX
   468 00000495 8D 04 30                        	LEA	EAX,DWORD [EAX+ESI*1]
   469 00000498 8D 14 32                        	LEA	EDX,DWORD [EDX+ESI*1]
   470 0000049B 46                              	INC	ESI
   471 0000049C 8A 04 18                        	MOV	AL,BYTE [EAX+EBX*1]
   472 0000049F 88 04 1A                        	MOV	BYTE [EDX+EBX*1],AL
   473 000004A2 8B 47 10                        	MOV	EAX,DWORD [16+EDI]
   474 000004A5 8D 04 C5 00000008               	LEA	EAX,DWORD [8+EAX*8]
   475 000004AC 39 C6                           	CMP	ESI,EAX
   476 000004AE 7C CB                           	JL	L77
   477 000004B0                                 L93:
   478 000004B0 8B 47 14                        	MOV	EAX,DWORD [20+EDI]
   479 000004B3 FF 45 F0                        	INC	DWORD [-16+EBP]
   480 000004B6 C1 E0 04                        	SAL	EAX,4
   481 000004B9 83 C0 0C                        	ADD	EAX,12
   482 000004BC 39 45 F0                        	CMP	DWORD [-16+EBP],EAX
   483 000004BF 7C A7                           	JL	L78
   484 000004C1                                 L91:
   485 000004C1 8B 47 14                        	MOV	EAX,DWORD [20+EDI]
   486 000004C4 C1 E0 04                        	SAL	EAX,4
   487 000004C7 8D 50 0C                        	LEA	EDX,DWORD [12+EAX]
   488 000004CA 83 C0 1C                        	ADD	EAX,28
   489 000004CD 89 55 F0                        	MOV	DWORD [-16+EBP],EDX
   490 000004D0 39 C2                           	CMP	EDX,EAX
   491 000004D2 7D 46                           	JGE	L95
   492 000004D4                                 L88:
   493 000004D4 8B 47 10                        	MOV	EAX,DWORD [16+EDI]
   494 000004D7 BE 00000008                     	MOV	ESI,8
   495 000004DC 8D 04 C5 00000008               	LEA	EAX,DWORD [8+EAX*8]
   496 000004E3 39 C6                           	CMP	ESI,EAX
   497 000004E5 7D 22                           	JGE	L97
   498 000004E7                                 L87:
   499 000004E7 8B 4D EC                        	MOV	ECX,DWORD [-20+EBP]
   500 000004EA 8B 45 F0                        	MOV	EAX,DWORD [-16+EBP]
   501 000004ED 0F AF 41 04                     	IMUL	EAX,DWORD [4+ECX]
   502 000004F1 8B 11                           	MOV	EDX,DWORD [ECX]
   503 000004F3 8D 04 30                        	LEA	EAX,DWORD [EAX+ESI*1]
   504 000004F6 46                              	INC	ESI
   505 000004F7 C6 04 10 00                     	MOV	BYTE [EAX+EDX*1],0
   506 000004FB 8B 47 10                        	MOV	EAX,DWORD [16+EDI]
   507 000004FE 8D 04 C5 00000008               	LEA	EAX,DWORD [8+EAX*8]
   508 00000505 39 C6                           	CMP	ESI,EAX
   509 00000507 7C DE                           	JL	L87
   510 00000509                                 L97:
   511 00000509 8B 47 14                        	MOV	EAX,DWORD [20+EDI]
   512 0000050C FF 45 F0                        	INC	DWORD [-16+EBP]
   513 0000050F C1 E0 04                        	SAL	EAX,4
   514 00000512 83 C0 1C                        	ADD	EAX,28
   515 00000515 39 45 F0                        	CMP	DWORD [-16+EBP],EAX
   516 00000518 7C BA                           	JL	L88
   517 0000051A                                 L95:
   518 0000051A 8B 47 14                        	MOV	EAX,DWORD [20+EDI]
   519 0000051D C1 E0 04                        	SAL	EAX,4
   520 00000520 83 C0 1C                        	ADD	EAX,28
   521 00000523 50                              	PUSH	EAX
   522 00000524 8B 47 10                        	MOV	EAX,DWORD [16+EDI]
   523 00000527 8D 04 C5 00000008               	LEA	EAX,DWORD [8+EAX*8]
   524 0000052E 50                              	PUSH	EAX
   525 0000052F 6A 1C                           	PUSH	28
   526 00000531 6A 08                           	PUSH	8
   527 00000533 FF 75 EC                        	PUSH	DWORD [-20+EBP]
   528 00000536 E8 [00000000]                   	CALL	_sheet_refresh
   529 0000053B 83 C4 14                        	ADD	ESP,20
   530 0000053E E9 FFFFFEE6                     	JMP	L67
   531 00000543                                 	GLOBAL	_cons_putstr0
   532 00000543                                 _cons_putstr0:
   533 00000543 55                              	PUSH	EBP
   534 00000544 89 E5                           	MOV	EBP,ESP
   535 00000546 56                              	PUSH	ESI
   536 00000547 53                              	PUSH	EBX
   537 00000548 8B 5D 0C                        	MOV	EBX,DWORD [12+EBP]
   538 0000054B 8B 75 08                        	MOV	ESI,DWORD [8+EBP]
   539 0000054E 80 3B 00                        	CMP	BYTE [EBX],0
   540 00000551 75 07                           	JNE	L104
   541 00000553                                 L106:
   542 00000553 8D 65 F8                        	LEA	ESP,DWORD [-8+EBP]
   543 00000556 5B                              	POP	EBX
   544 00000557 5E                              	POP	ESI
   545 00000558 5D                              	POP	EBP
   546 00000559 C3                              	RET
   547 0000055A                                 L104:
   548 0000055A 6A 01                           	PUSH	1
   549 0000055C 0F BE 03                        	MOVSX	EAX,BYTE [EBX]
   550 0000055F 50                              	PUSH	EAX
   551 00000560 43                              	INC	EBX
   552 00000561 56                              	PUSH	ESI
   553 00000562 E8 FFFFFDD4                     	CALL	_cons_putchar
   554 00000567 83 C4 0C                        	ADD	ESP,12
   555 0000056A 80 3B 00                        	CMP	BYTE [EBX],0
   556 0000056D 75 EB                           	JNE	L104
   557 0000056F EB E2                           	JMP	L106
   558 00000571                                 	GLOBAL	_cons_putstr1
   559 00000571                                 _cons_putstr1:
   560 00000571 55                              	PUSH	EBP
   561 00000572 89 E5                           	MOV	EBP,ESP
   562 00000574 57                              	PUSH	EDI
   563 00000575 56                              	PUSH	ESI
   564 00000576 53                              	PUSH	EBX
   565 00000577 8B 75 10                        	MOV	ESI,DWORD [16+EBP]
   566 0000057A 31 DB                           	XOR	EBX,EBX
   567 0000057C 8B 7D 0C                        	MOV	EDI,DWORD [12+EBP]
   568 0000057F 39 F3                           	CMP	EBX,ESI
   569 00000581 7C 08                           	JL	L112
   570 00000583                                 L114:
   571 00000583 8D 65 F4                        	LEA	ESP,DWORD [-12+EBP]
   572 00000586 5B                              	POP	EBX
   573 00000587 5E                              	POP	ESI
   574 00000588 5F                              	POP	EDI
   575 00000589 5D                              	POP	EBP
   576 0000058A C3                              	RET
   577 0000058B                                 L112:
   578 0000058B 6A 01                           	PUSH	1
   579 0000058D 0F BE 04 3B                     	MOVSX	EAX,BYTE [EBX+EDI*1]
   580 00000591 50                              	PUSH	EAX
   581 00000592 43                              	INC	EBX
   582 00000593 FF 75 08                        	PUSH	DWORD [8+EBP]
   583 00000596 E8 FFFFFDA0                     	CALL	_cons_putchar
   584 0000059B 83 C4 0C                        	ADD	ESP,12
   585 0000059E 39 F3                           	CMP	EBX,ESI
   586 000005A0 7C E9                           	JL	L112
   587 000005A2 EB DF                           	JMP	L114
   588                                          [SECTION .data]
   589 00000002                                 LC1:
   590 00000002 6D 65 6D 00                     	DB	"mem",0x00
   591 00000006                                 LC2:
   592 00000006 63 6C 73 00                     	DB	"cls",0x00
   593 0000000A                                 LC3:
   594 0000000A 64 69 72 00                     	DB	"dir",0x00
   595 0000000E                                 LC4:
   596 0000000E 64 64 69 72 20 00               	DB	"ddir ",0x00
   597 00000014                                 LC5:
   598 00000014 65 78 69 74 00                  	DB	"exit",0x00
   599 00000019                                 LC6:
   600 00000019 73 74 61 72 74 20 00            	DB	"start ",0x00
   601 00000020                                 LC7:
   602 00000020 6E 63 73 74 20 00               	DB	"ncst ",0x00
   603 00000026                                 LC8:
   604 00000026 6C 61 6E 67 6D 6F 64 65 20 00   	DB	"langmode ",0x00
   605 00000030                                 LC9:
   606 00000030 72 6D 20 00                     	DB	"rm ",0x00
   607 00000034                                 LC10:
   608 00000034 6D 76 20 00                     	DB	"mv ",0x00
   609 00000038                                 LC11:
   610 00000038 6D 6B 64 69 72 20 00            	DB	"mkdir ",0x00
   611 0000003F                                 LC12:
   612 0000003F 74 6F 75 63 68 20 00            	DB	"touch ",0x00
   613 00000046                                 LC13:
   614 00000046 42 61 64 20 63 6F 6D 6D 61 6E   	DB	"Bad command.",0x0A,0x0A,0x00
       00000050 64 2E 0A 0A 00 
   615                                          [SECTION .text]
   616 000005A4                                 	GLOBAL	_cons_runcmd
   617 000005A4                                 _cons_runcmd:
   618 000005A4 55                              	PUSH	EBP
   619 000005A5 89 E5                           	MOV	EBP,ESP
   620 000005A7 57                              	PUSH	EDI
   621 000005A8 56                              	PUSH	ESI
   622 000005A9 BF [00000002]                   	MOV	EDI,LC1
   623 000005AE 53                              	PUSH	EBX
   624 000005AF 83 EC 0C                        	SUB	ESP,12
   625 000005B2 8B 45 08                        	MOV	EAX,DWORD [8+EBP]
   626 000005B5 8B 4D 10                        	MOV	ECX,DWORD [16+EBP]
   627 000005B8 89 45 E8                        	MOV	DWORD [-24+EBP],EAX
   628 000005BB 89 4D F0                        	MOV	DWORD [-16+EBP],ECX
   629 000005BE 8B 45 14                        	MOV	EAX,DWORD [20+EBP]
   630 000005C1 8B 75 E8                        	MOV	ESI,DWORD [-24+EBP]
   631 000005C4 89 45 EC                        	MOV	DWORD [-20+EBP],EAX
   632 000005C7 8B 5D 0C                        	MOV	EBX,DWORD [12+EBP]
   633 000005CA B8 00000004                     	MOV	EAX,4
   634 000005CF FC                              	CLD
   635 000005D0 89 C1                           	MOV	ECX,EAX
   636 000005D2 F3                              	REPE
   637 000005D3 A6                              	CMPSB
   638 000005D4 75 09                           	JNE	L116
   639 000005D6 83 3B 00                        	CMP	DWORD [EBX],0
   640 000005D9 0F 85 00000231                  	JNE	L142
   641 000005DF                                 L116:
   642 000005DF B8 00000004                     	MOV	EAX,4
   643 000005E4 8B 75 E8                        	MOV	ESI,DWORD [-24+EBP]
   644 000005E7 FC                              	CLD
   645 000005E8 BF [00000006]                   	MOV	EDI,LC2
   646 000005ED 89 C1                           	MOV	ECX,EAX
   647 000005EF F3                              	REPE
   648 000005F0 A6                              	CMPSB
   649 000005F1 75 09                           	JNE	L118
   650 000005F3 83 3B 00                        	CMP	DWORD [EBX],0
   651 000005F6 0F 85 00000208                  	JNE	L143
   652 000005FC                                 L118:
   653 000005FC B8 00000004                     	MOV	EAX,4
   654 00000601 8B 75 E8                        	MOV	ESI,DWORD [-24+EBP]
   655 00000604 FC                              	CLD
   656 00000605 BF [0000000A]                   	MOV	EDI,LC3
   657 0000060A 89 C1                           	MOV	ECX,EAX
   658 0000060C F3                              	REPE
   659 0000060D A6                              	CMPSB
   660 0000060E 75 09                           	JNE	L120
   661 00000610 83 3B 00                        	CMP	DWORD [EBX],0
   662 00000613 0F 85 000001DC                  	JNE	L144
   663 00000619                                 L120:
   664 00000619 B8 00000005                     	MOV	EAX,5
   665 0000061E 8B 75 E8                        	MOV	ESI,DWORD [-24+EBP]
   666 00000621 FC                              	CLD
   667 00000622 BF [0000000E]                   	MOV	EDI,LC4
   668 00000627 89 C1                           	MOV	ECX,EAX
   669 00000629 F3                              	REPE
   670 0000062A A6                              	CMPSB
   671 0000062B 0F 84 000001AF                  	JE	L145
   672 00000631 B8 00000005                     	MOV	EAX,5
   673 00000636 8B 75 E8                        	MOV	ESI,DWORD [-24+EBP]
   674 00000639 FC                              	CLD
   675 0000063A BF [00000014]                   	MOV	EDI,LC5
   676 0000063F 89 C1                           	MOV	ECX,EAX
   677 00000641 F3                              	REPE
   678 00000642 A6                              	CMPSB
   679 00000643 0F 84 00000182                  	JE	L146
   680 00000649 B8 00000006                     	MOV	EAX,6
   681 0000064E 8B 75 E8                        	MOV	ESI,DWORD [-24+EBP]
   682 00000651 FC                              	CLD
   683 00000652 BF [00000019]                   	MOV	EDI,LC6
   684 00000657 89 C1                           	MOV	ECX,EAX
   685 00000659 F3                              	REPE
   686 0000065A A6                              	CMPSB
   687 0000065B 0F 84 0000014F                  	JE	L147
   688 00000661 B8 00000005                     	MOV	EAX,5
   689 00000666 8B 75 E8                        	MOV	ESI,DWORD [-24+EBP]
   690 00000669 FC                              	CLD
   691 0000066A BF [00000020]                   	MOV	EDI,LC7
   692 0000066F 89 C1                           	MOV	ECX,EAX
   693 00000671 F3                              	REPE
   694 00000672 A6                              	CMPSB
   695 00000673 0F 84 0000011C                  	JE	L148
   696 00000679 B8 00000009                     	MOV	EAX,9
   697 0000067E 8B 75 E8                        	MOV	ESI,DWORD [-24+EBP]
   698 00000681 FC                              	CLD
   699 00000682 BF [00000026]                   	MOV	EDI,LC8
   700 00000687 89 C1                           	MOV	ECX,EAX
   701 00000689 F3                              	REPE
   702 0000068A A6                              	CMPSB
   703 0000068B 0F 84 000000EF                  	JE	L149
   704 00000691 B8 00000003                     	MOV	EAX,3
   705 00000696 8B 75 E8                        	MOV	ESI,DWORD [-24+EBP]
   706 00000699 FC                              	CLD
   707 0000069A BF [00000030]                   	MOV	EDI,LC9
   708 0000069F 89 C1                           	MOV	ECX,EAX
   709 000006A1 F3                              	REPE
   710 000006A2 A6                              	CMPSB
   711 000006A3 0F 84 000000C2                  	JE	L150
   712 000006A9 B8 00000003                     	MOV	EAX,3
   713 000006AE 8B 75 E8                        	MOV	ESI,DWORD [-24+EBP]
   714 000006B1 FC                              	CLD
   715 000006B2 BF [00000034]                   	MOV	EDI,LC10
   716 000006B7 89 C1                           	MOV	ECX,EAX
   717 000006B9 F3                              	REPE
   718 000006BA A6                              	CMPSB
   719 000006BB 0F 84 00000095                  	JE	L151
   720 000006C1 B8 00000006                     	MOV	EAX,6
   721 000006C6 8B 75 E8                        	MOV	ESI,DWORD [-24+EBP]
   722 000006C9 FC                              	CLD
   723 000006CA BF [00000038]                   	MOV	EDI,LC11
   724 000006CF 89 C1                           	MOV	ECX,EAX
   725 000006D1 F3                              	REPE
   726 000006D2 A6                              	CMPSB
   727 000006D3 74 66                           	JE	L152
   728 000006D5 B8 00000006                     	MOV	EAX,6
   729 000006DA 8B 75 E8                        	MOV	ESI,DWORD [-24+EBP]
   730 000006DD FC                              	CLD
   731 000006DE BF [0000003F]                   	MOV	EDI,LC12
   732 000006E3 89 C1                           	MOV	ECX,EAX
   733 000006E5 F3                              	REPE
   734 000006E6 A6                              	CMPSB
   735 000006E7 74 37                           	JE	L153
   736 000006E9 8B 45 E8                        	MOV	EAX,DWORD [-24+EBP]
   737 000006EC 80 38 00                        	CMP	BYTE [EAX],0
   738 000006EF 75 08                           	JNE	L154
   739 000006F1                                 L115:
   740 000006F1 8D 65 F4                        	LEA	ESP,DWORD [-12+EBP]
   741 000006F4 5B                              	POP	EBX
   742 000006F5 5E                              	POP	ESI
   743 000006F6 5F                              	POP	EDI
   744 000006F7 5D                              	POP	EBP
   745 000006F8 C3                              	RET
   746 000006F9                                 L154:
   747 000006F9 50                              	PUSH	EAX
   748 000006FA FF 75 F0                        	PUSH	DWORD [-16+EBP]
   749 000006FD 53                              	PUSH	EBX
   750 000006FE E8 0000096F                     	CALL	_cmd_app
   751 00000703 83 C4 0C                        	ADD	ESP,12
   752 00000706 85 C0                           	TEST	EAX,EAX
   753 00000708 75 E7                           	JNE	L115
   754 0000070A C7 45 0C [00000046]             	MOV	DWORD [12+EBP],LC13
   755 00000711 89 5D 08                        	MOV	DWORD [8+EBP],EBX
   756 00000714 8D 65 F4                        	LEA	ESP,DWORD [-12+EBP]
   757 00000717 5B                              	POP	EBX
   758 00000718 5E                              	POP	ESI
   759 00000719 5F                              	POP	EDI
   760 0000071A 5D                              	POP	EBP
   761 0000071B E9 FFFFFE23                     	JMP	_cons_putstr0
   762 00000720                                 L153:
   763 00000720 8B 45 F0                        	MOV	EAX,DWORD [-16+EBP]
   764 00000723 8B 4D E8                        	MOV	ECX,DWORD [-24+EBP]
   765 00000726 89 45 10                        	MOV	DWORD [16+EBP],EAX
   766 00000729 89 4D 0C                        	MOV	DWORD [12+EBP],ECX
   767 0000072C 89 5D 08                        	MOV	DWORD [8+EBP],EBX
   768 0000072F 8D 65 F4                        	LEA	ESP,DWORD [-12+EBP]
   769 00000732 5B                              	POP	EBX
   770 00000733 5E                              	POP	ESI
   771 00000734 5F                              	POP	EDI
   772 00000735 5D                              	POP	EBP
   773 00000736 E9 0000081B                     	JMP	_cmd_touch
   774 0000073B                                 L152:
   775 0000073B 8B 45 F0                        	MOV	EAX,DWORD [-16+EBP]
   776 0000073E 8B 4D E8                        	MOV	ECX,DWORD [-24+EBP]
   777 00000741 89 45 10                        	MOV	DWORD [16+EBP],EAX
   778 00000744 89 4D 0C                        	MOV	DWORD [12+EBP],ECX
   779 00000747 89 5D 08                        	MOV	DWORD [8+EBP],EBX
   780 0000074A 8D 65 F4                        	LEA	ESP,DWORD [-12+EBP]
   781 0000074D 5B                              	POP	EBX
   782 0000074E 5E                              	POP	ESI
   783 0000074F 5F                              	POP	EDI
   784 00000750 5D                              	POP	EBP
   785 00000751 E9 00000681                     	JMP	_cmd_mkdir
   786 00000756                                 L151:
   787 00000756 8B 45 E8                        	MOV	EAX,DWORD [-24+EBP]
   788 00000759 89 5D 08                        	MOV	DWORD [8+EBP],EBX
   789 0000075C 89 45 0C                        	MOV	DWORD [12+EBP],EAX
   790 0000075F 8D 65 F4                        	LEA	ESP,DWORD [-12+EBP]
   791 00000762 5B                              	POP	EBX
   792 00000763 5E                              	POP	ESI
   793 00000764 5F                              	POP	EDI
   794 00000765 5D                              	POP	EBP
   795 00000766 E9 00000535                     	JMP	_cmd_mv
   796 0000076B                                 L150:
   797 0000076B 8B 45 E8                        	MOV	EAX,DWORD [-24+EBP]
   798 0000076E 89 5D 08                        	MOV	DWORD [8+EBP],EBX
   799 00000771 89 45 0C                        	MOV	DWORD [12+EBP],EAX
   800 00000774 8D 65 F4                        	LEA	ESP,DWORD [-12+EBP]
   801 00000777 5B                              	POP	EBX
   802 00000778 5E                              	POP	ESI
   803 00000779 5F                              	POP	EDI
   804 0000077A 5D                              	POP	EBP
   805 0000077B E9 000004D6                     	JMP	_cmd_rm
   806 00000780                                 L149:
   807 00000780 8B 45 E8                        	MOV	EAX,DWORD [-24+EBP]
   808 00000783 89 5D 08                        	MOV	DWORD [8+EBP],EBX
   809 00000786 89 45 0C                        	MOV	DWORD [12+EBP],EAX
   810 00000789 8D 65 F4                        	LEA	ESP,DWORD [-12+EBP]
   811 0000078C 5B                              	POP	EBX
   812 0000078D 5E                              	POP	ESI
   813 0000078E 5F                              	POP	EDI
   814 0000078F 5D                              	POP	EBP
   815 00000790 E9 00000483                     	JMP	_cmd_langmode
   816 00000795                                 L148:
   817 00000795 8B 45 EC                        	MOV	EAX,DWORD [-20+EBP]
   818 00000798 8B 4D E8                        	MOV	ECX,DWORD [-24+EBP]
   819 0000079B 89 45 10                        	MOV	DWORD [16+EBP],EAX
   820 0000079E 89 4D 0C                        	MOV	DWORD [12+EBP],ECX
   821 000007A1 89 5D 08                        	MOV	DWORD [8+EBP],EBX
   822 000007A4 8D 65 F4                        	LEA	ESP,DWORD [-12+EBP]
   823 000007A7 5B                              	POP	EBX
   824 000007A8 5E                              	POP	ESI
   825 000007A9 5F                              	POP	EDI
   826 000007AA 5D                              	POP	EBP
   827 000007AB E9 000003FF                     	JMP	_cmd_ncst
   828 000007B0                                 L147:
   829 000007B0 8B 45 EC                        	MOV	EAX,DWORD [-20+EBP]
   830 000007B3 8B 4D E8                        	MOV	ECX,DWORD [-24+EBP]
   831 000007B6 89 45 10                        	MOV	DWORD [16+EBP],EAX
   832 000007B9 89 4D 0C                        	MOV	DWORD [12+EBP],ECX
   833 000007BC 89 5D 08                        	MOV	DWORD [8+EBP],EBX
   834 000007BF 8D 65 F4                        	LEA	ESP,DWORD [-12+EBP]
   835 000007C2 5B                              	POP	EBX
   836 000007C3 5E                              	POP	ESI
   837 000007C4 5F                              	POP	EDI
   838 000007C5 5D                              	POP	EBP
   839 000007C6 E9 00000356                     	JMP	_cmd_start
   840 000007CB                                 L146:
   841 000007CB 8B 45 F0                        	MOV	EAX,DWORD [-16+EBP]
   842 000007CE 89 5D 08                        	MOV	DWORD [8+EBP],EBX
   843 000007D1 89 45 0C                        	MOV	DWORD [12+EBP],EAX
   844 000007D4 8D 65 F4                        	LEA	ESP,DWORD [-12+EBP]
   845 000007D7 5B                              	POP	EBX
   846 000007D8 5E                              	POP	ESI
   847 000007D9 5F                              	POP	EDI
   848 000007DA 5D                              	POP	EBP
   849 000007DB E9 000002A9                     	JMP	_cmd_exit
   850 000007E0                                 L145:
   851 000007E0 8B 45 E8                        	MOV	EAX,DWORD [-24+EBP]
   852 000007E3 89 5D 08                        	MOV	DWORD [8+EBP],EBX
   853 000007E6 89 45 0C                        	MOV	DWORD [12+EBP],EAX
   854 000007E9 8D 65 F4                        	LEA	ESP,DWORD [-12+EBP]
   855 000007EC 5B                              	POP	EBX
   856 000007ED 5E                              	POP	ESI
   857 000007EE 5F                              	POP	EDI
   858 000007EF 5D                              	POP	EBP
   859 000007F0 E9 00000197                     	JMP	_cmd_ddir
   860 000007F5                                 L144:
   861 000007F5 89 5D 08                        	MOV	DWORD [8+EBP],EBX
   862 000007F8 8D 65 F4                        	LEA	ESP,DWORD [-12+EBP]
   863 000007FB 5B                              	POP	EBX
   864 000007FC 5E                              	POP	ESI
   865 000007FD 5F                              	POP	EDI
   866 000007FE 5D                              	POP	EBP
   867 000007FF E9 000000C3                     	JMP	_cmd_dir
   868 00000804                                 L143:
   869 00000804 89 5D 08                        	MOV	DWORD [8+EBP],EBX
   870 00000807 8D 65 F4                        	LEA	ESP,DWORD [-12+EBP]
   871 0000080A 5B                              	POP	EBX
   872 0000080B 5E                              	POP	ESI
   873 0000080C 5F                              	POP	EDI
   874 0000080D 5D                              	POP	EBP
   875 0000080E EB 53                           	JMP	_cmd_cls
   876 00000810                                 L142:
   877 00000810 8B 45 EC                        	MOV	EAX,DWORD [-20+EBP]
   878 00000813 89 5D 08                        	MOV	DWORD [8+EBP],EBX
   879 00000816 89 45 0C                        	MOV	DWORD [12+EBP],EAX
   880 00000819 8D 65 F4                        	LEA	ESP,DWORD [-12+EBP]
   881 0000081C 5B                              	POP	EBX
   882 0000081D 5E                              	POP	ESI
   883 0000081E 5F                              	POP	EDI
   884 0000081F 5D                              	POP	EBP
   885 00000820 EB 00                           	JMP	_cmd_mem
   886                                          [SECTION .data]
   887 00000055                                 LC14:
   888 00000055 74 6F 74 61 6C 20 20 20 25 64   	DB	"total   %dMB",0x0A,"free %dKB",0x0A,0x0A,0x00
       0000005F 4D 42 0A 66 72 65 65 20 25 64 
       00000069 4B 42 0A 0A 00 
   889                                          [SECTION .text]
   890 00000822                                 	GLOBAL	_cmd_mem
   891 00000822                                 _cmd_mem:
   892 00000822 55                              	PUSH	EBP
   893 00000823 89 E5                           	MOV	EBP,ESP
   894 00000825 53                              	PUSH	EBX
   895 00000826 83 EC 40                        	SUB	ESP,64
   896 00000829 68 003C0000                     	PUSH	3932160
   897 0000082E E8 [00000000]                   	CALL	_memman_total
   898 00000833 BA 00100000                     	MOV	EDX,1048576
   899 00000838 C1 E8 0A                        	SHR	EAX,10
   900 0000083B 89 D3                           	MOV	EBX,EDX
   901 0000083D 89 04 24                        	MOV	DWORD [ESP],EAX
   902 00000840 8B 45 0C                        	MOV	EAX,DWORD [12+EBP]
   903 00000843 99                              	CDQ
   904 00000844 F7 FB                           	IDIV	EBX
   905 00000846 50                              	PUSH	EAX
   906 00000847 8D 5D BC                        	LEA	EBX,DWORD [-68+EBP]
   907 0000084A 68 [00000055]                   	PUSH	LC14
   908 0000084F 53                              	PUSH	EBX
   909 00000850 E8 [00000000]                   	CALL	_sprintf
   910 00000855 53                              	PUSH	EBX
   911 00000856 FF 75 08                        	PUSH	DWORD [8+EBP]
   912 00000859 E8 FFFFFCE5                     	CALL	_cons_putstr0
   913 0000085E 8B 5D FC                        	MOV	EBX,DWORD [-4+EBP]
   914 00000861 C9                              	LEAVE
   915 00000862 C3                              	RET
   916 00000863                                 	GLOBAL	_cmd_cls
   917 00000863                                 _cmd_cls:
   918 00000863 55                              	PUSH	EBP
   919 00000864 89 E5                           	MOV	EBP,ESP
   920 00000866 57                              	PUSH	EDI
   921 00000867 56                              	PUSH	ESI
   922 00000868 8B 7D 08                        	MOV	EDI,DWORD [8+EBP]
   923 0000086B 53                              	PUSH	EBX
   924 0000086C BB 0000001C                     	MOV	EBX,28
   925 00000871 8B 37                           	MOV	ESI,DWORD [EDI]
   926 00000873                                 L166:
   927 00000873 B9 00000008                     	MOV	ECX,8
   928 00000878                                 L165:
   929 00000878 89 D8                           	MOV	EAX,EBX
   930 0000087A 8B 16                           	MOV	EDX,DWORD [ESI]
   931 0000087C 0F AF 46 04                     	IMUL	EAX,DWORD [4+ESI]
   932 00000880 8D 04 08                        	LEA	EAX,DWORD [EAX+ECX*1]
   933 00000883 41                              	INC	ECX
   934 00000884 81 F9 000000F7                  	CMP	ECX,247
   935 0000088A C6 04 10 00                     	MOV	BYTE [EAX+EDX*1],0
   936 0000088E 7E E8                           	JLE	L165
   937 00000890 43                              	INC	EBX
   938 00000891 81 FB 0000009B                  	CMP	EBX,155
   939 00000897 7E DA                           	JLE	L166
   940 00000899 8B 47 14                        	MOV	EAX,DWORD [20+EDI]
   941 0000089C C1 E0 04                        	SAL	EAX,4
   942 0000089F 83 C0 1C                        	ADD	EAX,28
   943 000008A2 50                              	PUSH	EAX
   944 000008A3 8B 47 10                        	MOV	EAX,DWORD [16+EDI]
   945 000008A6 8D 04 C5 00000008               	LEA	EAX,DWORD [8+EAX*8]
   946 000008AD 50                              	PUSH	EAX
   947 000008AE 6A 1C                           	PUSH	28
   948 000008B0 6A 08                           	PUSH	8
   949 000008B2 56                              	PUSH	ESI
   950 000008B3 E8 [00000000]                   	CALL	_sheet_refresh
   951 000008B8 C7 47 08 0000001C               	MOV	DWORD [8+EDI],28
   952 000008BF 8D 65 F4                        	LEA	ESP,DWORD [-12+EBP]
   953 000008C2 5B                              	POP	EBX
   954 000008C3 5E                              	POP	ESI
   955 000008C4 5F                              	POP	EDI
   956 000008C5 5D                              	POP	EBP
   957 000008C6 C3                              	RET
   958                                          [SECTION .data]
   959 0000006E                                 LC16:
   960 0000006E 66 69 6C 65 6E 61 6D 65 00      	DB	"filename",0x00
   961 00000077                                 LC15:
   962 00000077 66 69 6C 65 6E 61 6D 65 2E 65   	DB	"filename.ext   %7d",0x0A,0x00
       00000081 78 74 20 20 20 25 37 64 0A 00 
   963                                          [SECTION .text]
   964 000008C7                                 	GLOBAL	_cmd_dir
   965 000008C7                                 _cmd_dir:
   966 000008C7 55                              	PUSH	EBP
   967 000008C8 89 E5                           	MOV	EBP,ESP
   968 000008CA 57                              	PUSH	EDI
   969 000008CB 56                              	PUSH	ESI
   970 000008CC 31 F6                           	XOR	ESI,ESI
   971 000008CE 53                              	PUSH	EBX
   972 000008CF 31 DB                           	XOR	EBX,EBX
   973 000008D1 83 EC 20                        	SUB	ESP,32
   974 000008D4 8B 7D 08                        	MOV	EDI,DWORD [8+EBP]
   975 000008D7                                 L191:
   976 000008D7 8A 83 00102600                  	MOV	AL,BYTE [1058304+EBX]
   977 000008DD 84 C0                           	TEST	AL,AL
   978 000008DF 74 21                           	JE	L173
   979 000008E1 3C E5                           	CMP	AL,-27
   980 000008E3 74 11                           	JE	L174
   981 000008E5 8A 83 0010260B                  	MOV	AL,BYTE [1058315+EBX]
   982 000008EB A9 00000018                     	TEST	EAX,24
   983 000008F0 74 51                           	JE	L198
   984 000008F2 3C 10                           	CMP	AL,16
   985 000008F4 74 1A                           	JE	L199
   986 000008F6                                 L174:
   987 000008F6 46                              	INC	ESI
   988 000008F7 83 C3 20                        	ADD	EBX,32
   989 000008FA 81 FE 000000DF                  	CMP	ESI,223
   990 00000900 7E D5                           	JLE	L191
   991 00000902                                 L173:
   992 00000902 57                              	PUSH	EDI
   993 00000903 E8 FFFFFAF2                     	CALL	_cons_newline
   994 00000908 8D 65 F4                        	LEA	ESP,DWORD [-12+EBP]
   995 0000090B 5B                              	POP	EBX
   996 0000090C 5E                              	POP	ESI
   997 0000090D 5F                              	POP	EDI
   998 0000090E 5D                              	POP	EBP
   999 0000090F C3                              	RET
  1000 00000910                                 L199:
  1001 00000910 68 [0000006E]                   	PUSH	LC16
  1002 00000915 8D 45 D4                        	LEA	EAX,DWORD [-44+EBP]
  1003 00000918 50                              	PUSH	EAX
  1004 00000919 E8 [00000000]                   	CALL	_sprintf
  1005 0000091E 58                              	POP	EAX
  1006 0000091F 5A                              	POP	EDX
  1007 00000920 31 C9                           	XOR	ECX,ECX
  1008 00000922 8D 93 00102600                  	LEA	EDX,DWORD [1058304+EBX]
  1009 00000928                                 L190:
  1010 00000928 8A 02                           	MOV	AL,BYTE [EDX]
  1011 0000092A 42                              	INC	EDX
  1012 0000092B 88 44 0D D4                     	MOV	BYTE [-44+EBP+ECX*1],AL
  1013 0000092F 41                              	INC	ECX
  1014 00000930 83 F9 07                        	CMP	ECX,7
  1015 00000933 7E F3                           	JLE	L190
  1016 00000935                                 L197:
  1017 00000935 8D 45 D4                        	LEA	EAX,DWORD [-44+EBP]
  1018 00000938 50                              	PUSH	EAX
  1019 00000939 57                              	PUSH	EDI
  1020 0000093A E8 FFFFFC04                     	CALL	_cons_putstr0
  1021 0000093F 58                              	POP	EAX
  1022 00000940 5A                              	POP	EDX
  1023 00000941 EB B3                           	JMP	L174
  1024 00000943                                 L198:
  1025 00000943 FF B3 0010261C                  	PUSH	DWORD [1058332+EBX]
  1026 00000949 68 [00000077]                   	PUSH	LC15
  1027 0000094E 8D 45 D4                        	LEA	EAX,DWORD [-44+EBP]
  1028 00000951 50                              	PUSH	EAX
  1029 00000952 E8 [00000000]                   	CALL	_sprintf
  1030 00000957 8D 93 00102600                  	LEA	EDX,DWORD [1058304+EBX]
  1031 0000095D 31 C9                           	XOR	ECX,ECX
  1032 0000095F 83 C4 0C                        	ADD	ESP,12
  1033 00000962                                 L183:
  1034 00000962 8A 02                           	MOV	AL,BYTE [EDX]
  1035 00000964 42                              	INC	EDX
  1036 00000965 88 44 0D D4                     	MOV	BYTE [-44+EBP+ECX*1],AL
  1037 00000969 41                              	INC	ECX
  1038 0000096A 83 F9 07                        	CMP	ECX,7
  1039 0000096D 7E F3                           	JLE	L183
  1040 0000096F 8A 83 00102608                  	MOV	AL,BYTE [1058312+EBX]
  1041 00000975 88 45 DD                        	MOV	BYTE [-35+EBP],AL
  1042 00000978 8A 83 00102609                  	MOV	AL,BYTE [1058313+EBX]
  1043 0000097E 88 45 DE                        	MOV	BYTE [-34+EBP],AL
  1044 00000981 8A 83 0010260A                  	MOV	AL,BYTE [1058314+EBX]
  1045 00000987 88 45 DF                        	MOV	BYTE [-33+EBP],AL
  1046 0000098A EB A9                           	JMP	L197
  1047                                          [SECTION .data]
  1048 0000008B                                 LC17:
  1049 0000008B 4E 6F 74 20 46 6F 75 6E 64 20   	DB	"Not Found Directory.",0x00
       00000095 44 69 72 65 63 74 6F 72 79 2E 
       0000009F 00 
  1050                                          [SECTION .text]
  1051 0000098C                                 	GLOBAL	_cmd_ddir
  1052 0000098C                                 _cmd_ddir:
  1053 0000098C 55                              	PUSH	EBP
  1054 0000098D 89 E5                           	MOV	EBP,ESP
  1055 0000098F 57                              	PUSH	EDI
  1056 00000990 56                              	PUSH	ESI
  1057 00000991 53                              	PUSH	EBX
  1058 00000992 83 EC 2C                        	SUB	ESP,44
  1059 00000995 8B 45 0C                        	MOV	EAX,DWORD [12+EBP]
  1060 00000998 8B 7D 08                        	MOV	EDI,DWORD [8+EBP]
  1061 0000099B 83 C0 05                        	ADD	EAX,5
  1062 0000099E 89 45 CC                        	MOV	DWORD [-52+EBP],EAX
  1063 000009A1 8D 45 D0                        	LEA	EAX,DWORD [-48+EBP]
  1064 000009A4 50                              	PUSH	EAX
  1065 000009A5 8D 45 CC                        	LEA	EAX,DWORD [-52+EBP]
  1066 000009A8 6A 00                           	PUSH	0
  1067 000009AA 50                              	PUSH	EAX
  1068 000009AB C7 45 D0 00102600               	MOV	DWORD [-48+EBP],1058304
  1069 000009B2 E8 000011C2                     	CALL	_parent_info
  1070 000009B7 83 C4 0C                        	ADD	ESP,12
  1071 000009BA 85 C0                           	TEST	EAX,EAX
  1072 000009BC 0F 85 000000AE                  	JNE	L228
  1073 000009C2 8B 5D D0                        	MOV	EBX,DWORD [-48+EBP]
  1074 000009C5 31 F6                           	XOR	ESI,ESI
  1075 000009C7 C7 45 C8 00000000               	MOV	DWORD [-56+EBP],0
  1076 000009CE                                 L221:
  1077 000009CE 8A 04 33                        	MOV	AL,BYTE [EBX+ESI*1]
  1078 000009D1 84 C0                           	TEST	AL,AL
  1079 000009D3 74 1F                           	JE	L203
  1080 000009D5 3C E5                           	CMP	AL,-27
  1081 000009D7 74 0F                           	JE	L204
  1082 000009D9 8A 44 33 0B                     	MOV	AL,BYTE [11+EBX+ESI*1]
  1083 000009DD A9 00000018                     	TEST	EAX,24
  1084 000009E2 74 4E                           	JE	L229
  1085 000009E4 3C 10                           	CMP	AL,16
  1086 000009E6 74 1A                           	JE	L230
  1087 000009E8                                 L204:
  1088 000009E8 FF 45 C8                        	INC	DWORD [-56+EBP]
  1089 000009EB 83 C6 20                        	ADD	ESI,32
  1090 000009EE 83 7D C8 0F                     	CMP	DWORD [-56+EBP],15
  1091 000009F2 7E DA                           	JLE	L221
  1092 000009F4                                 L203:
  1093 000009F4 57                              	PUSH	EDI
  1094 000009F5 E8 FFFFFA00                     	CALL	_cons_newline
  1095 000009FA 8D 65 F4                        	LEA	ESP,DWORD [-12+EBP]
  1096 000009FD 5B                              	POP	EBX
  1097 000009FE 5E                              	POP	ESI
  1098 000009FF 5F                              	POP	EDI
  1099 00000A00 5D                              	POP	EBP
  1100 00000A01 C3                              	RET
  1101 00000A02                                 L230:
  1102 00000A02 68 [0000006E]                   	PUSH	LC16
  1103 00000A07 8D 45 D4                        	LEA	EAX,DWORD [-44+EBP]
  1104 00000A0A 50                              	PUSH	EAX
  1105 00000A0B E8 [00000000]                   	CALL	_sprintf
  1106 00000A10 58                              	POP	EAX
  1107 00000A11 5A                              	POP	EDX
  1108 00000A12 31 C9                           	XOR	ECX,ECX
  1109 00000A14 8D 14 1E                        	LEA	EDX,DWORD [ESI+EBX*1]
  1110 00000A17                                 L220:
  1111 00000A17 8A 02                           	MOV	AL,BYTE [EDX]
  1112 00000A19 42                              	INC	EDX
  1113 00000A1A 88 44 0D D4                     	MOV	BYTE [-44+EBP+ECX*1],AL
  1114 00000A1E 41                              	INC	ECX
  1115 00000A1F 83 F9 07                        	CMP	ECX,7
  1116 00000A22 7E F3                           	JLE	L220
  1117 00000A24                                 L227:
  1118 00000A24 8D 45 D4                        	LEA	EAX,DWORD [-44+EBP]
  1119 00000A27 50                              	PUSH	EAX
  1120 00000A28 57                              	PUSH	EDI
  1121 00000A29 E8 FFFFFB15                     	CALL	_cons_putstr0
  1122 00000A2E 59                              	POP	ECX
  1123 00000A2F 58                              	POP	EAX
  1124 00000A30 EB B6                           	JMP	L204
  1125 00000A32                                 L229:
  1126 00000A32 FF 74 33 1C                     	PUSH	DWORD [28+EBX+ESI*1]
  1127 00000A36 68 [00000077]                   	PUSH	LC15
  1128 00000A3B 8D 45 D4                        	LEA	EAX,DWORD [-44+EBP]
  1129 00000A3E 50                              	PUSH	EAX
  1130 00000A3F E8 [00000000]                   	CALL	_sprintf
  1131 00000A44 8D 14 1E                        	LEA	EDX,DWORD [ESI+EBX*1]
  1132 00000A47 31 C9                           	XOR	ECX,ECX
  1133 00000A49 83 C4 0C                        	ADD	ESP,12
  1134 00000A4C                                 L213:
  1135 00000A4C 8A 02                           	MOV	AL,BYTE [EDX]
  1136 00000A4E 42                              	INC	EDX
  1137 00000A4F 88 44 0D D4                     	MOV	BYTE [-44+EBP+ECX*1],AL
  1138 00000A53 41                              	INC	ECX
  1139 00000A54 83 F9 07                        	CMP	ECX,7
  1140 00000A57 7E F3                           	JLE	L213
  1141 00000A59 8A 44 33 08                     	MOV	AL,BYTE [8+EBX+ESI*1]
  1142 00000A5D 88 45 DD                        	MOV	BYTE [-35+EBP],AL
  1143 00000A60 8A 44 33 09                     	MOV	AL,BYTE [9+EBX+ESI*1]
  1144 00000A64 88 45 DE                        	MOV	BYTE [-34+EBP],AL
  1145 00000A67 8A 44 33 0A                     	MOV	AL,BYTE [10+EBX+ESI*1]
  1146 00000A6B 88 45 DF                        	MOV	BYTE [-33+EBP],AL
  1147 00000A6E EB B4                           	JMP	L227
  1148 00000A70                                 L228:
  1149 00000A70 68 [0000008B]                   	PUSH	LC17
  1150 00000A75 57                              	PUSH	EDI
  1151 00000A76 E8 FFFFFAC8                     	CALL	_cons_putstr0
  1152 00000A7B FF 75 CC                        	PUSH	DWORD [-52+EBP]
  1153 00000A7E 57                              	PUSH	EDI
  1154 00000A7F E8 FFFFFABF                     	CALL	_cons_putstr0
  1155 00000A84 E9 FFFFFF6B                     	JMP	L203
  1156 00000A89                                 	GLOBAL	_cmd_exit
  1157 00000A89                                 _cmd_exit:
  1158 00000A89 55                              	PUSH	EBP
  1159 00000A8A 89 E5                           	MOV	EBP,ESP
  1160 00000A8C 57                              	PUSH	EDI
  1161 00000A8D 56                              	PUSH	ESI
  1162 00000A8E 53                              	PUSH	EBX
  1163 00000A8F 50                              	PUSH	EAX
  1164 00000A90 8B 5D 08                        	MOV	EBX,DWORD [8+EBP]
  1165 00000A93 E8 [00000000]                   	CALL	_task_now
  1166 00000A98 8B 35 00000FE4                  	MOV	ESI,DWORD [4068]
  1167 00000A9E 8B 3D 00000FEC                  	MOV	EDI,DWORD [4076]
  1168 00000AA4 89 45 F0                        	MOV	DWORD [-16+EBP],EAX
  1169 00000AA7 83 3B 00                        	CMP	DWORD [EBX],0
  1170 00000AAA 74 09                           	JE	L232
  1171 00000AAC FF 73 18                        	PUSH	DWORD [24+EBX]
  1172 00000AAF E8 [00000000]                   	CALL	_timer_cancel
  1173 00000AB4 58                              	POP	EAX
  1174 00000AB5                                 L232:
  1175 00000AB5 68 00002D00                     	PUSH	11520
  1176 00000ABA FF 75 0C                        	PUSH	DWORD [12+EBP]
  1177 00000ABD 68 003C0000                     	PUSH	3932160
  1178 00000AC2 E8 [00000000]                   	CALL	_memman_free_4k
  1179 00000AC7 E8 [00000000]                   	CALL	_io_cli
  1180 00000ACC 8B 03                           	MOV	EAX,DWORD [EBX]
  1181 00000ACE 83 C4 0C                        	ADD	ESP,12
  1182 00000AD1 85 C0                           	TEST	EAX,EAX
  1183 00000AD3 74 2E                           	JE	L233
  1184 00000AD5 29 F0                           	SUB	EAX,ESI
  1185 00000AD7 2D 00000414                     	SUB	EAX,1044
  1186 00000ADC C1 F8 03                        	SAR	EAX,3
  1187 00000ADF 69 C0 CCCCCCCD                  	IMUL	EAX,EAX,-858993459
  1188 00000AE5 05 00000300                     	ADD	EAX,768
  1189 00000AEA                                 L238:
  1190 00000AEA 50                              	PUSH	EAX
  1191 00000AEB 57                              	PUSH	EDI
  1192 00000AEC E8 [00000000]                   	CALL	_fifo32_put
  1193 00000AF1 5B                              	POP	EBX
  1194 00000AF2 5E                              	POP	ESI
  1195 00000AF3 E8 [00000000]                   	CALL	_io_sti
  1196 00000AF8                                 L235:
  1197 00000AF8 FF 75 F0                        	PUSH	DWORD [-16+EBP]
  1198 00000AFB E8 [00000000]                   	CALL	_task_sleep
  1199 00000B00 59                              	POP	ECX
  1200 00000B01 EB F5                           	JMP	L235
  1201 00000B03                                 L233:
  1202 00000B03 8B 45 F0                        	MOV	EAX,DWORD [-16+EBP]
  1203 00000B06 2B 05 [00000000]                	SUB	EAX,DWORD [_taskctl]
  1204 00000B0C 2D 00000FF8                     	SUB	EAX,4088
  1205 00000B11 C1 F8 06                        	SAR	EAX,6
  1206 00000B14 69 C0 AAAAAAAB                  	IMUL	EAX,EAX,-1431655765
  1207 00000B1A 05 00000400                     	ADD	EAX,1024
  1208 00000B1F EB C9                           	JMP	L238
  1209 00000B21                                 	GLOBAL	_cmd_start
  1210 00000B21                                 _cmd_start:
  1211 00000B21 55                              	PUSH	EBP
  1212 00000B22 89 E5                           	MOV	EBP,ESP
  1213 00000B24 57                              	PUSH	EDI
  1214 00000B25 56                              	PUSH	ESI
  1215 00000B26 53                              	PUSH	EBX
  1216 00000B27 57                              	PUSH	EDI
  1217 00000B28 57                              	PUSH	EDI
  1218 00000B29 8B 45 08                        	MOV	EAX,DWORD [8+EBP]
  1219 00000B2C 8B 7D 0C                        	MOV	EDI,DWORD [12+EBP]
  1220 00000B2F 8B 35 00000FE4                  	MOV	ESI,DWORD [4068]
  1221 00000B35 89 45 F0                        	MOV	DWORD [-16+EBP],EAX
  1222 00000B38 6A 18                           	PUSH	24
  1223 00000B3A 6A 50                           	PUSH	80
  1224 00000B3C FF 75 10                        	PUSH	DWORD [16+EBP]
  1225 00000B3F 56                              	PUSH	ESI
  1226 00000B40 E8 [00000000]                   	CALL	_open_console
  1227 00000B45 89 C3                           	MOV	EBX,EAX
  1228 00000B47 8B 40 24                        	MOV	EAX,DWORD [36+EAX]
  1229 00000B4A 83 C0 10                        	ADD	EAX,16
  1230 00000B4D 89 45 EC                        	MOV	DWORD [-20+EBP],EAX
  1231 00000B50 6A 04                           	PUSH	4
  1232 00000B52 6A 20                           	PUSH	32
  1233 00000B54 53                              	PUSH	EBX
  1234 00000B55 E8 [00000000]                   	CALL	_sheet_slide
  1235 00000B5A FF 76 10                        	PUSH	DWORD [16+ESI]
  1236 00000B5D 53                              	PUSH	EBX
  1237 00000B5E BB 00000006                     	MOV	EBX,6
  1238 00000B63 E8 [00000000]                   	CALL	_sheet_updown
  1239 00000B68 83 C4 24                        	ADD	ESP,36
  1240 00000B6B 80 7F 06 00                     	CMP	BYTE [6+EDI],0
  1241 00000B6F 75 21                           	JNE	L244
  1242 00000B71                                 L246:
  1243 00000B71 68 0000010A                     	PUSH	266
  1244 00000B76 FF 75 EC                        	PUSH	DWORD [-20+EBP]
  1245 00000B79 E8 [00000000]                   	CALL	_fifo32_put
  1246 00000B7E 58                              	POP	EAX
  1247 00000B7F 8B 45 F0                        	MOV	EAX,DWORD [-16+EBP]
  1248 00000B82 5A                              	POP	EDX
  1249 00000B83 89 45 08                        	MOV	DWORD [8+EBP],EAX
  1250 00000B86 8D 65 F4                        	LEA	ESP,DWORD [-12+EBP]
  1251 00000B89 5B                              	POP	EBX
  1252 00000B8A 5E                              	POP	ESI
  1253 00000B8B 5F                              	POP	EDI
  1254 00000B8C 5D                              	POP	EBP
  1255 00000B8D E9 FFFFF868                     	JMP	_cons_newline
  1256 00000B92                                 L244:
  1257 00000B92 0F BE 04 3B                     	MOVSX	EAX,BYTE [EBX+EDI*1]
  1258 00000B96 05 00000100                     	ADD	EAX,256
  1259 00000B9B 43                              	INC	EBX
  1260 00000B9C 50                              	PUSH	EAX
  1261 00000B9D FF 75 EC                        	PUSH	DWORD [-20+EBP]
  1262 00000BA0 E8 [00000000]                   	CALL	_fifo32_put
  1263 00000BA5 80 3C 3B 00                     	CMP	BYTE [EBX+EDI*1],0
  1264 00000BA9 59                              	POP	ECX
  1265 00000BAA 5E                              	POP	ESI
  1266 00000BAB 75 E5                           	JNE	L244
  1267 00000BAD EB C2                           	JMP	L246
  1268 00000BAF                                 	GLOBAL	_cmd_ncst
  1269 00000BAF                                 _cmd_ncst:
  1270 00000BAF 55                              	PUSH	EBP
  1271 00000BB0 89 E5                           	MOV	EBP,ESP
  1272 00000BB2 57                              	PUSH	EDI
  1273 00000BB3 56                              	PUSH	ESI
  1274 00000BB4 BE 00000005                     	MOV	ESI,5
  1275 00000BB9 53                              	PUSH	EBX
  1276 00000BBA 50                              	PUSH	EAX
  1277 00000BBB 8B 45 08                        	MOV	EAX,DWORD [8+EBP]
  1278 00000BBE 8B 5D 0C                        	MOV	EBX,DWORD [12+EBP]
  1279 00000BC1 89 45 F0                        	MOV	DWORD [-16+EBP],EAX
  1280 00000BC4 6A 18                           	PUSH	24
  1281 00000BC6 6A 50                           	PUSH	80
  1282 00000BC8 FF 75 10                        	PUSH	DWORD [16+EBP]
  1283 00000BCB 6A 00                           	PUSH	0
  1284 00000BCD E8 [00000000]                   	CALL	_open_constask
  1285 00000BD2 83 C4 10                        	ADD	ESP,16
  1286 00000BD5 80 7B 05 00                     	CMP	BYTE [5+EBX],0
  1287 00000BD9 8D 78 10                        	LEA	EDI,DWORD [16+EAX]
  1288 00000BDC 75 1F                           	JNE	L252
  1289 00000BDE                                 L254:
  1290 00000BDE 68 0000010A                     	PUSH	266
  1291 00000BE3 57                              	PUSH	EDI
  1292 00000BE4 E8 [00000000]                   	CALL	_fifo32_put
  1293 00000BE9 58                              	POP	EAX
  1294 00000BEA 8B 45 F0                        	MOV	EAX,DWORD [-16+EBP]
  1295 00000BED 5A                              	POP	EDX
  1296 00000BEE 89 45 08                        	MOV	DWORD [8+EBP],EAX
  1297 00000BF1 8D 65 F4                        	LEA	ESP,DWORD [-12+EBP]
  1298 00000BF4 5B                              	POP	EBX
  1299 00000BF5 5E                              	POP	ESI
  1300 00000BF6 5F                              	POP	EDI
  1301 00000BF7 5D                              	POP	EBP
  1302 00000BF8 E9 FFFFF7FD                     	JMP	_cons_newline
  1303 00000BFD                                 L252:
  1304 00000BFD 0F BE 04 1E                     	MOVSX	EAX,BYTE [ESI+EBX*1]
  1305 00000C01 05 00000100                     	ADD	EAX,256
  1306 00000C06 46                              	INC	ESI
  1307 00000C07 50                              	PUSH	EAX
  1308 00000C08 57                              	PUSH	EDI
  1309 00000C09 E8 [00000000]                   	CALL	_fifo32_put
  1310 00000C0E 80 3C 1E 00                     	CMP	BYTE [ESI+EBX*1],0
  1311 00000C12 59                              	POP	ECX
  1312 00000C13 58                              	POP	EAX
  1313 00000C14 75 E7                           	JNE	L252
  1314 00000C16 EB C6                           	JMP	L254
  1315                                          [SECTION .data]
  1316 000000A0                                 LC18:
  1317 000000A0 6D 6F 64 65 20 6E 75 6D 62 65   	DB	"mode number error.",0x0A,0x00
       000000AA 72 20 65 72 72 6F 72 2E 0A 00 
  1318                                          [SECTION .text]
  1319 00000C18                                 	GLOBAL	_cmd_langmode
  1320 00000C18                                 _cmd_langmode:
  1321 00000C18 55                              	PUSH	EBP
  1322 00000C19 89 E5                           	MOV	EBP,ESP
  1323 00000C1B 56                              	PUSH	ESI
  1324 00000C1C 53                              	PUSH	EBX
  1325 00000C1D 8B 5D 0C                        	MOV	EBX,DWORD [12+EBP]
  1326 00000C20 8B 75 08                        	MOV	ESI,DWORD [8+EBP]
  1327 00000C23 E8 [00000000]                   	CALL	_task_now
  1328 00000C28 8A 53 09                        	MOV	DL,BYTE [9+EBX]
  1329 00000C2B 83 EA 30                        	SUB	EDX,48
  1330 00000C2E 80 FA 02                        	CMP	DL,2
  1331 00000C31 77 14                           	JA	L256
  1332 00000C33 88 90 000000BC                  	MOV	BYTE [188+EAX],DL
  1333 00000C39                                 L257:
  1334 00000C39 89 75 08                        	MOV	DWORD [8+EBP],ESI
  1335 00000C3C 8D 65 F8                        	LEA	ESP,DWORD [-8+EBP]
  1336 00000C3F 5B                              	POP	EBX
  1337 00000C40 5E                              	POP	ESI
  1338 00000C41 5D                              	POP	EBP
  1339 00000C42 E9 FFFFF7B3                     	JMP	_cons_newline
  1340 00000C47                                 L256:
  1341 00000C47 68 [000000A0]                   	PUSH	LC18
  1342 00000C4C 56                              	PUSH	ESI
  1343 00000C4D E8 FFFFF8F1                     	CALL	_cons_putstr0
  1344 00000C52 58                              	POP	EAX
  1345 00000C53 5A                              	POP	EDX
  1346 00000C54 EB E3                           	JMP	L257
  1347                                          [SECTION .data]
  1348 000000B4                                 LC19:
  1349 000000B4 66 69 6C 65 20 6E 6F 74 20 66   	DB	"file not found.",0x00
       000000BE 6F 75 6E 64 2E 00 
  1350                                          [SECTION .text]
  1351 00000C56                                 	GLOBAL	_cmd_rm
  1352 00000C56                                 _cmd_rm:
  1353 00000C56 55                              	PUSH	EBP
  1354 00000C57 89 E5                           	MOV	EBP,ESP
  1355 00000C59 53                              	PUSH	EBX
  1356 00000C5A 8B 5D 08                        	MOV	EBX,DWORD [8+EBP]
  1357 00000C5D 68 000000E0                     	PUSH	224
  1358 00000C62 68 00102600                     	PUSH	1058304
  1359 00000C67 8B 45 0C                        	MOV	EAX,DWORD [12+EBP]
  1360 00000C6A 83 C0 03                        	ADD	EAX,3
  1361 00000C6D 50                              	PUSH	EAX
  1362 00000C6E E8 [00000000]                   	CALL	_file_search
  1363 00000C73 83 C4 0C                        	ADD	ESP,12
  1364 00000C76 85 C0                           	TEST	EAX,EAX
  1365 00000C78 74 0D                           	JE	L259
  1366 00000C7A 80 38 00                        	CMP	BYTE [EAX],0
  1367 00000C7D 74 08                           	JE	L259
  1368 00000C7F C6 00 E5                        	MOV	BYTE [EAX],-27
  1369 00000C82 8B 5D FC                        	MOV	EBX,DWORD [-4+EBP]
  1370 00000C85 C9                              	LEAVE
  1371 00000C86 C3                              	RET
  1372 00000C87                                 L259:
  1373 00000C87 68 [000000B4]                   	PUSH	LC19
  1374 00000C8C 53                              	PUSH	EBX
  1375 00000C8D E8 FFFFF8B1                     	CALL	_cons_putstr0
  1376 00000C92 59                              	POP	ECX
  1377 00000C93 58                              	POP	EAX
  1378 00000C94 89 5D 08                        	MOV	DWORD [8+EBP],EBX
  1379 00000C97 8B 5D FC                        	MOV	EBX,DWORD [-4+EBP]
  1380 00000C9A C9                              	LEAVE
  1381 00000C9B E9 FFFFF75A                     	JMP	_cons_newline
  1382                                          [SECTION .data]
  1383 000000C4                                 LC21:
  1384 000000C4 6E 65 65 64 20 65 78 74 65 6E   	DB	"need extention.",0x00
       000000CE 74 69 6F 6E 2E 00 
  1385 000000D4                                 LC22:
  1386 000000D4 46 69 6C 65 20 6E 6F 74 20 46   	DB	"File not Found.",0x00
       000000DE 6F 75 6E 64 2E 00 
  1387 000000E4                                 LC20:
  1388 000000E4 6D 76 20 6D 75 73 74 20 68 61   	DB	"mv must have 2 argments.",0x00
       000000EE 76 65 20 32 20 61 72 67 6D 65 
       000000F8 6E 74 73 2E 00 
  1389                                          [SECTION .text]
  1390 00000CA0                                 	GLOBAL	_cmd_mv
  1391 00000CA0                                 _cmd_mv:
  1392 00000CA0 55                              	PUSH	EBP
  1393 00000CA1 B9 00000003                     	MOV	ECX,3
  1394 00000CA6 89 E5                           	MOV	EBP,ESP
  1395 00000CA8 57                              	PUSH	EDI
  1396 00000CA9 56                              	PUSH	ESI
  1397 00000CAA 53                              	PUSH	EBX
  1398 00000CAB 31 DB                           	XOR	EBX,EBX
  1399 00000CAD 83 EC 20                        	SUB	ESP,32
  1400 00000CB0 8B 75 0C                        	MOV	ESI,DWORD [12+EBP]
  1401 00000CB3 8B 7D 08                        	MOV	EDI,DWORD [8+EBP]
  1402 00000CB6 80 7E 03 20                     	CMP	BYTE [3+ESI],32
  1403 00000CBA 0F 84 0000010B                  	JE	L266
  1404 00000CC0                                 L310:
  1405 00000CC0 80 3C 31 20                     	CMP	BYTE [ECX+ESI*1],32
  1406 00000CC4 74 17                           	JE	L312
  1407 00000CC6                                 L272:
  1408 00000CC6 8A 04 31                        	MOV	AL,BYTE [ECX+ESI*1]
  1409 00000CC9 88 44 1D E4                     	MOV	BYTE [-28+EBP+EBX*1],AL
  1410 00000CCD 43                              	INC	EBX
  1411 00000CCE 84 C0                           	TEST	AL,AL
  1412 00000CD0 0F 84 000000EE                  	JE	L324
  1413 00000CD6 41                              	INC	ECX
  1414 00000CD7 80 3C 31 20                     	CMP	BYTE [ECX+ESI*1],32
  1415 00000CDB 75 E9                           	JNE	L272
  1416 00000CDD                                 L312:
  1417 00000CDD C6 44 1D E4 00                  	MOV	BYTE [-28+EBP+EBX*1],0
  1418 00000CE2 8A 04 31                        	MOV	AL,BYTE [ECX+ESI*1]
  1419 00000CE5 84 C0                           	TEST	AL,AL
  1420 00000CE7 0F 84 000000D7                  	JE	L324
  1421 00000CED 3C 20                           	CMP	AL,32
  1422 00000CEF 0F 84 000000C3                  	JE	L278
  1423 00000CF5                                 L314:
  1424 00000CF5 31 DB                           	XOR	EBX,EBX
  1425 00000CF7 85 F6                           	TEST	ESI,ESI
  1426 00000CF9 74 28                           	JE	L279
  1427 00000CFB 80 3C 31 00                     	CMP	BYTE [ECX+ESI*1],0
  1428 00000CFF 74 1D                           	JE	L316
  1429 00000D01                                 L285:
  1430 00000D01 8A 14 31                        	MOV	DL,BYTE [ECX+ESI*1]
  1431 00000D04 88 54 1D D4                     	MOV	BYTE [-44+EBP+EBX*1],DL
  1432 00000D08 8D 42 9F                        	LEA	EAX,DWORD [-97+EDX]
  1433 00000D0B 3C 19                           	CMP	AL,25
  1434 00000D0D 77 07                           	JA	L284
  1435 00000D0F 8D 42 E0                        	LEA	EAX,DWORD [-32+EDX]
  1436 00000D12 88 44 1D D4                     	MOV	BYTE [-44+EBP+EBX*1],AL
  1437 00000D16                                 L284:
  1438 00000D16 41                              	INC	ECX
  1439 00000D17 43                              	INC	EBX
  1440 00000D18 80 3C 31 00                     	CMP	BYTE [ECX+ESI*1],0
  1441 00000D1C 75 E3                           	JNE	L285
  1442 00000D1E                                 L316:
  1443 00000D1E C6 44 1D D4 00                  	MOV	BYTE [-44+EBP+EBX*1],0
  1444 00000D23                                 L279:
  1445 00000D23 68 000000E0                     	PUSH	224
  1446 00000D28 8D 45 E4                        	LEA	EAX,DWORD [-28+EBP]
  1447 00000D2B 68 00102600                     	PUSH	1058304
  1448 00000D30 50                              	PUSH	EAX
  1449 00000D31 E8 [00000000]                   	CALL	_file_search
  1450 00000D36 83 C4 0C                        	ADD	ESP,12
  1451 00000D39 89 C2                           	MOV	EDX,EAX
  1452 00000D3B 85 C0                           	TEST	EAX,EAX
  1453 00000D3D 74 72                           	JE	L286
  1454 00000D3F 31 DB                           	XOR	EBX,EBX
  1455 00000D41 80 7D D4 2E                     	CMP	BYTE [-44+EBP],46
  1456 00000D45 74 0F                           	JE	L318
  1457 00000D47                                 L292:
  1458 00000D47 80 7C 1D D4 00                  	CMP	BYTE [-44+EBP+EBX*1],0
  1459 00000D4C 74 50                           	JE	L325
  1460 00000D4E 43                              	INC	EBX
  1461 00000D4F 80 7C 1D D4 2E                  	CMP	BYTE [-44+EBP+EBX*1],46
  1462 00000D54 75 F1                           	JNE	L292
  1463 00000D56                                 L318:
  1464 00000D56 31 C9                           	XOR	ECX,ECX
  1465 00000D58                                 L297:
  1466 00000D58 C6 04 0A 20                     	MOV	BYTE [EDX+ECX*1],32
  1467 00000D5C 41                              	INC	ECX
  1468 00000D5D 83 F9 07                        	CMP	ECX,7
  1469 00000D60 7E F6                           	JLE	L297
  1470 00000D62 31 C9                           	XOR	ECX,ECX
  1471 00000D64 80 7D D4 2E                     	CMP	BYTE [-44+EBP],46
  1472 00000D68 74 0F                           	JE	L322
  1473 00000D6A                                 L302:
  1474 00000D6A 8A 44 0D D4                     	MOV	AL,BYTE [-44+EBP+ECX*1]
  1475 00000D6E 88 04 0A                        	MOV	BYTE [EDX+ECX*1],AL
  1476 00000D71 41                              	INC	ECX
  1477 00000D72 80 7C 0D D4 2E                  	CMP	BYTE [-44+EBP+ECX*1],46
  1478 00000D77 75 F1                           	JNE	L302
  1479 00000D79                                 L322:
  1480 00000D79 41                              	INC	ECX
  1481 00000D7A BB 00000008                     	MOV	EBX,8
  1482 00000D7F 80 7C 0D D4 00                  	CMP	BYTE [-44+EBP+ECX*1],0
  1483 00000D84 74 10                           	JE	L261
  1484 00000D86                                 L307:
  1485 00000D86 8A 44 0D D4                     	MOV	AL,BYTE [-44+EBP+ECX*1]
  1486 00000D8A 41                              	INC	ECX
  1487 00000D8B 88 04 1A                        	MOV	BYTE [EDX+EBX*1],AL
  1488 00000D8E 43                              	INC	EBX
  1489 00000D8F 80 7C 0D D4 00                  	CMP	BYTE [-44+EBP+ECX*1],0
  1490 00000D94 75 F0                           	JNE	L307
  1491 00000D96                                 L261:
  1492 00000D96 8D 65 F4                        	LEA	ESP,DWORD [-12+EBP]
  1493 00000D99 5B                              	POP	EBX
  1494 00000D9A 5E                              	POP	ESI
  1495 00000D9B 5F                              	POP	EDI
  1496 00000D9C 5D                              	POP	EBP
  1497 00000D9D C3                              	RET
  1498 00000D9E                                 L325:
  1499 00000D9E 68 [000000C4]                   	PUSH	LC21
  1500 00000DA3                                 L326:
  1501 00000DA3 57                              	PUSH	EDI
  1502 00000DA4 E8 FFFFF79A                     	CALL	_cons_putstr0
  1503 00000DA9 57                              	PUSH	EDI
  1504 00000DAA E8 FFFFF64B                     	CALL	_cons_newline
  1505 00000DAF EB E5                           	JMP	L261
  1506 00000DB1                                 L286:
  1507 00000DB1 68 [000000D4]                   	PUSH	LC22
  1508 00000DB6 EB EB                           	JMP	L326
  1509 00000DB8                                 L278:
  1510 00000DB8 41                              	INC	ECX
  1511 00000DB9 80 3C 31 20                     	CMP	BYTE [ECX+ESI*1],32
  1512 00000DBD 74 F9                           	JE	L278
  1513 00000DBF E9 FFFFFF31                     	JMP	L314
  1514 00000DC4                                 L324:
  1515 00000DC4 68 [000000E4]                   	PUSH	LC20
  1516 00000DC9 EB D8                           	JMP	L326
  1517 00000DCB                                 L266:
  1518 00000DCB 41                              	INC	ECX
  1519 00000DCC 80 3C 31 20                     	CMP	BYTE [ECX+ESI*1],32
  1520 00000DD0 74 F9                           	JE	L266
  1521 00000DD2 E9 FFFFFEE9                     	JMP	L310
  1522                                          [SECTION .data]
  1523 000000FD                                 LC24:
  1524 000000FD 44 69 72 65 63 74 6F 72 79 20   	DB	"Directory entory Full.",0x00
       00000107 65 6E 74 6F 72 79 20 46 75 6C 
       00000111 6C 2E 00 
  1525 00000114                                 LC23:
  1526 00000114 46 41 54 20 69 73 20 46 75 6C   	DB	"FAT is Full.",0x00
       0000011E 6C 2E 00 
  1527                                          [SECTION .text]
  1528 00000DD7                                 	GLOBAL	_cmd_mkdir
  1529 00000DD7                                 _cmd_mkdir:
  1530 00000DD7 55                              	PUSH	EBP
  1531 00000DD8 89 E5                           	MOV	EBP,ESP
  1532 00000DDA 57                              	PUSH	EDI
  1533 00000DDB 56                              	PUSH	ESI
  1534 00000DDC 53                              	PUSH	EBX
  1535 00000DDD 83 EC 0C                        	SUB	ESP,12
  1536 00000DE0 8B 45 0C                        	MOV	EAX,DWORD [12+EBP]
  1537 00000DE3 8B 5D 08                        	MOV	EBX,DWORD [8+EBP]
  1538 00000DE6 83 C0 06                        	ADD	EAX,6
  1539 00000DE9 FF 75 10                        	PUSH	DWORD [16+EBP]
  1540 00000DEC 89 45 EC                        	MOV	DWORD [-20+EBP],EAX
  1541 00000DEF C7 45 F0 00102600               	MOV	DWORD [-16+EBP],1058304
  1542 00000DF6 E8 00000CE9                     	CALL	_allocClust
  1543 00000DFB 89 C6                           	MOV	ESI,EAX
  1544 00000DFD 58                              	POP	EAX
  1545 00000DFE 83 FE FF                        	CMP	ESI,-1
  1546 00000E01 0F 84 00000123                  	JE	L340
  1547 00000E07 8D 45 F0                        	LEA	EAX,DWORD [-16+EBP]
  1548 00000E0A 50                              	PUSH	EAX
  1549 00000E0B 8D 45 EC                        	LEA	EAX,DWORD [-20+EBP]
  1550 00000E0E 6A 00                           	PUSH	0
  1551 00000E10 50                              	PUSH	EAX
  1552 00000E11 E8 00000D63                     	CALL	_parent_info
  1553 00000E16 83 C4 0C                        	ADD	ESP,12
  1554 00000E19 85 C0                           	TEST	EAX,EAX
  1555 00000E1B 0F 85 00000102                  	JNE	L341
  1556 00000E21 C7 45 E8 00000000               	MOV	DWORD [-24+EBP],0
  1557 00000E28 31 C9                           	XOR	ECX,ECX
  1558 00000E2A 31 D2                           	XOR	EDX,EDX
  1559 00000E2C                                 L335:
  1560 00000E2C 8B 45 F0                        	MOV	EAX,DWORD [-16+EBP]
  1561 00000E2F 80 3C 10 00                     	CMP	BYTE [EAX+EDX*1],0
  1562 00000E33 0F 84 000000E0                  	JE	L338
  1563 00000E39 41                              	INC	ECX
  1564 00000E3A 83 C2 20                        	ADD	EDX,32
  1565 00000E3D 81 F9 000000F3                  	CMP	ECX,243
  1566 00000E43 7E E7                           	JLE	L335
  1567 00000E45                                 L331:
  1568 00000E45 83 7D E8 00                     	CMP	DWORD [-24+EBP],0
  1569 00000E49 0F 84 000000B7                  	JE	L342
  1570 00000E4F 6A 08                           	PUSH	8
  1571 00000E51 FF 75 EC                        	PUSH	DWORD [-20+EBP]
  1572 00000E54 E8 00000CF6                     	CALL	_capitalize
  1573 00000E59 31 C0                           	XOR	EAX,EAX
  1574 00000E5B 8B 55 EC                        	MOV	EDX,DWORD [-20+EBP]
  1575 00000E5E 83 C9 FF                        	OR	ECX,-1
  1576 00000E61 FC                              	CLD
  1577 00000E62 89 D7                           	MOV	EDI,EDX
  1578 00000E64 F2                              	REPNE
  1579 00000E65 AE                              	SCASB
  1580 00000E66 6A 08                           	PUSH	8
  1581 00000E68 52                              	PUSH	EDX
  1582 00000E69 F7 D1                           	NOT	ECX
  1583 00000E6B FF 75 E8                        	PUSH	DWORD [-24+EBP]
  1584 00000E6E 8D 59 FF                        	LEA	EBX,DWORD [-1+ECX]
  1585 00000E71 E8 [00000000]                   	CALL	_strncpy
  1586 00000E76 B8 00000008                     	MOV	EAX,8
  1587 00000E7B 29 D8                           	SUB	EAX,EBX
  1588 00000E7D 50                              	PUSH	EAX
  1589 00000E7E 8B 45 E8                        	MOV	EAX,DWORD [-24+EBP]
  1590 00000E81 6A 20                           	PUSH	32
  1591 00000E83 01 D8                           	ADD	EAX,EBX
  1592 00000E85 50                              	PUSH	EAX
  1593 00000E86 E8 [00000000]                   	CALL	_memset
  1594 00000E8B 83 C4 20                        	ADD	ESP,32
  1595 00000E8E 8B 45 E8                        	MOV	EAX,DWORD [-24+EBP]
  1596 00000E91 0F B7 DE                        	MOVZX	EBX,SI
  1597 00000E94 66 C7 40 08 2020                	MOV	WORD [8+EAX],8224
  1598 00000E9A C6 40 0A 20                     	MOV	BYTE [10+EAX],32
  1599 00000E9E C6 40 0B 10                     	MOV	BYTE [11+EAX],16
  1600 00000EA2 66 89 70 1A                     	MOV	WORD [26+EAX],SI
  1601 00000EA6 8B 55 10                        	MOV	EDX,DWORD [16+EBP]
  1602 00000EA9 C7 40 1C 00000000               	MOV	DWORD [28+EAX],0
  1603 00000EB0 C7 04 9A 00000FFF               	MOV	DWORD [EDX+EBX*4],4095
  1604 00000EB7 C1 E3 09                        	SAL	EBX,9
  1605 00000EBA 8D B3 00103E00                  	LEA	ESI,DWORD [1064448+EBX]
  1606 00000EC0 56                              	PUSH	ESI
  1607 00000EC1 E8 00000C39                     	CALL	_initFinfo
  1608 00000EC6 C6 83 00103E00 2E               	MOV	BYTE [1064448+EBX],46
  1609 00000ECD C6 46 0B 10                     	MOV	BYTE [11+ESI],16
  1610 00000ED1 8B 7D E8                        	MOV	EDI,DWORD [-24+EBP]
  1611 00000ED4 81 C3 00103E20                  	ADD	EBX,1064480
  1612 00000EDA 66 8B 47 1A                     	MOV	AX,WORD [26+EDI]
  1613 00000EDE 66 89 46 1A                     	MOV	WORD [26+ESI],AX
  1614 00000EE2 53                              	PUSH	EBX
  1615 00000EE3 E8 00000C17                     	CALL	_initFinfo
  1616 00000EE8 66 A1 0000001A                  	MOV	AX,WORD [26]
  1617 00000EEE C6 46 20 2E                     	MOV	BYTE [32+ESI],46
  1618 00000EF2 C6 46 21 2E                     	MOV	BYTE [33+ESI],46
  1619 00000EF6 C6 46 2B 10                     	MOV	BYTE [43+ESI],16
  1620 00000EFA 66 89 46 3A                     	MOV	WORD [58+ESI],AX
  1621 00000EFE                                 L327:
  1622 00000EFE 8D 65 F4                        	LEA	ESP,DWORD [-12+EBP]
  1623 00000F01 5B                              	POP	EBX
  1624 00000F02 5E                              	POP	ESI
  1625 00000F03 5F                              	POP	EDI
  1626 00000F04 5D                              	POP	EBP
  1627 00000F05 C3                              	RET
  1628 00000F06                                 L342:
  1629 00000F06 68 [000000FD]                   	PUSH	LC24
  1630 00000F0B                                 L339:
  1631 00000F0B 53                              	PUSH	EBX
  1632 00000F0C E8 FFFFF632                     	CALL	_cons_putstr0
  1633 00000F11 53                              	PUSH	EBX
  1634 00000F12 E8 FFFFF4E3                     	CALL	_cons_newline
  1635 00000F17 EB E5                           	JMP	L327
  1636 00000F19                                 L338:
  1637 00000F19 01 D0                           	ADD	EAX,EDX
  1638 00000F1B 89 45 E8                        	MOV	DWORD [-24+EBP],EAX
  1639 00000F1E E9 FFFFFF22                     	JMP	L331
  1640 00000F23                                 L341:
  1641 00000F23 68 [0000008B]                   	PUSH	LC17
  1642 00000F28 EB E1                           	JMP	L339
  1643 00000F2A                                 L340:
  1644 00000F2A 68 [00000114]                   	PUSH	LC23
  1645 00000F2F EB DA                           	JMP	L339
  1646 00000F31                                 	GLOBAL	_strchr
  1647 00000F31                                 _strchr:
  1648 00000F31 55                              	PUSH	EBP
  1649 00000F32 89 E5                           	MOV	EBP,ESP
  1650 00000F34 53                              	PUSH	EBX
  1651 00000F35 8B 55 08                        	MOV	EDX,DWORD [8+EBP]
  1652 00000F38 8B 5D 0C                        	MOV	EBX,DWORD [12+EBP]
  1653 00000F3B 80 3A 00                        	CMP	BYTE [EDX],0
  1654 00000F3E 74 0F                           	JE	L350
  1655 00000F40                                 L348:
  1656 00000F40 0F BE 02                        	MOVSX	EAX,BYTE [EDX]
  1657 00000F43 89 D1                           	MOV	ECX,EDX
  1658 00000F45 39 D8                           	CMP	EAX,EBX
  1659 00000F47 74 08                           	JE	L343
  1660 00000F49 42                              	INC	EDX
  1661 00000F4A 80 3A 00                        	CMP	BYTE [EDX],0
  1662 00000F4D 75 F1                           	JNE	L348
  1663 00000F4F                                 L350:
  1664 00000F4F 31 C9                           	XOR	ECX,ECX
  1665 00000F51                                 L343:
  1666 00000F51 5B                              	POP	EBX
  1667 00000F52 89 C8                           	MOV	EAX,ECX
  1668 00000F54 5D                              	POP	EBP
  1669 00000F55 C3                              	RET
  1670                                          [SECTION .data]
  1671 00000121                                 LC25:
  1672 00000121 4E 6F 74 20 45 6D 70 74 79 20   	DB	"Not Empty FAT",0x00
       0000012B 46 41 54 00 
  1673                                          [SECTION .text]
  1674 00000F56                                 	GLOBAL	_cmd_touch
  1675 00000F56                                 _cmd_touch:
  1676 00000F56 55                              	PUSH	EBP
  1677 00000F57 89 E5                           	MOV	EBP,ESP
  1678 00000F59 57                              	PUSH	EDI
  1679 00000F5A 56                              	PUSH	ESI
  1680 00000F5B 53                              	PUSH	EBX
  1681 00000F5C BB 00102600                     	MOV	EBX,1058304
  1682 00000F61 50                              	PUSH	EAX
  1683 00000F62 50                              	PUSH	EAX
  1684 00000F63 8B 45 08                        	MOV	EAX,DWORD [8+EBP]
  1685 00000F66 8B 55 10                        	MOV	EDX,DWORD [16+EBP]
  1686 00000F69 89 45 F0                        	MOV	DWORD [-16+EBP],EAX
  1687 00000F6C 89 55 EC                        	MOV	DWORD [-20+EBP],EDX
  1688 00000F6F 8B 75 0C                        	MOV	ESI,DWORD [12+EBP]
  1689 00000F72 31 C0                           	XOR	EAX,EAX
  1690 00000F74 31 D2                           	XOR	EDX,EDX
  1691 00000F76                                 L357:
  1692 00000F76 80 3B 00                        	CMP	BYTE [EBX],0
  1693 00000F79 0F 84 000000E8                  	JE	L383
  1694 00000F7F 42                              	INC	EDX
  1695 00000F80 83 C3 20                        	ADD	EBX,32
  1696 00000F83 8D 40 20                        	LEA	EAX,DWORD [32+EAX]
  1697 00000F86 81 FA 000000DF                  	CMP	EDX,223
  1698 00000F8C 7E E8                           	JLE	L357
  1699 00000F8E                                 L353:
  1700 00000F8E C7 07 20202020                  	MOV	DWORD [EDI],538976288
  1701 00000F94 31 D2                           	XOR	EDX,EDX
  1702 00000F96 C7 47 04 20202020               	MOV	DWORD [4+EDI],538976288
  1703 00000F9D 66 C7 47 08 2020                	MOV	WORD [8+EDI],8224
  1704 00000FA3 C6 47 0A 20                     	MOV	BYTE [10+EDI],32
  1705 00000FA7 80 7E 06 2E                     	CMP	BYTE [6+ESI],46
  1706 00000FAB 74 0F                           	JE	L378
  1707 00000FAD                                 L362:
  1708 00000FAD 8A 44 32 06                     	MOV	AL,BYTE [6+EDX+ESI*1]
  1709 00000FB1 88 04 17                        	MOV	BYTE [EDI+EDX*1],AL
  1710 00000FB4 42                              	INC	EDX
  1711 00000FB5 80 7C 32 06 2E                  	CMP	BYTE [6+EDX+ESI*1],46
  1712 00000FBA 75 F1                           	JNE	L362
  1713 00000FBC                                 L378:
  1714 00000FBC 8D 44 32 07                     	LEA	EAX,DWORD [7+EDX+ESI*1]
  1715 00000FC0 50                              	PUSH	EAX
  1716 00000FC1 8D 47 08                        	LEA	EAX,DWORD [8+EDI]
  1717 00000FC4 50                              	PUSH	EAX
  1718 00000FC5 E8 [00000000]                   	CALL	_strcpy
  1719 00000FCA 5B                              	POP	EBX
  1720 00000FCB 31 D2                           	XOR	EDX,EDX
  1721 00000FCD 5E                              	POP	ESI
  1722 00000FCE                                 L368:
  1723 00000FCE 8A 0C 17                        	MOV	CL,BYTE [EDI+EDX*1]
  1724 00000FD1 8D 41 9F                        	LEA	EAX,DWORD [-97+ECX]
  1725 00000FD4 3C 19                           	CMP	AL,25
  1726 00000FD6 77 06                           	JA	L365
  1727 00000FD8 8D 41 E0                        	LEA	EAX,DWORD [-32+ECX]
  1728 00000FDB 88 04 17                        	MOV	BYTE [EDI+EDX*1],AL
  1729 00000FDE                                 L365:
  1730 00000FDE 42                              	INC	EDX
  1731 00000FDF 83 FA 07                        	CMP	EDX,7
  1732 00000FE2 7E EA                           	JLE	L368
  1733 00000FE4 31 D2                           	XOR	EDX,EDX
  1734 00000FE6                                 L374:
  1735 00000FE6 8A 4C 17 08                     	MOV	CL,BYTE [8+EDI+EDX*1]
  1736 00000FEA 8D 41 9F                        	LEA	EAX,DWORD [-97+ECX]
  1737 00000FED 3C 19                           	CMP	AL,25
  1738 00000FEF 77 07                           	JA	L371
  1739 00000FF1 8D 41 E0                        	LEA	EAX,DWORD [-32+ECX]
  1740 00000FF4 88 44 17 08                     	MOV	BYTE [8+EDI+EDX*1],AL
  1741 00000FF8                                 L371:
  1742 00000FF8 42                              	INC	EDX
  1743 00000FF9 83 FA 02                        	CMP	EDX,2
  1744 00000FFC 7E E8                           	JLE	L374
  1745 00000FFE C6 47 0B 20                     	MOV	BYTE [11+EDI],32
  1746 00001002 C7 47 1C 00000000               	MOV	DWORD [28+EDI],0
  1747 00001009 FF 75 EC                        	PUSH	DWORD [-20+EBP]
  1748 0000100C E8 00000AD3                     	CALL	_allocClust
  1749 00001011 66 3D 0B41                      	CMP	AX,2881
  1750 00001015 66 89 47 1A                     	MOV	WORD [26+EDI],AX
  1751 00001019 59                              	POP	ECX
  1752 0000101A 74 2A                           	JE	L384
  1753 0000101C 0F B7 C0                        	MOVZX	EAX,AX
  1754 0000101F 8B 55 EC                        	MOV	EDX,DWORD [-20+EBP]
  1755 00001022 89 C7                           	MOV	EDI,EAX
  1756 00001024 C1 E7 09                        	SAL	EDI,9
  1757 00001027 B9 00000080                     	MOV	ECX,128
  1758 0000102C FC                              	CLD
  1759 0000102D C7 04 82 00000FFF               	MOV	DWORD [EDX+EAX*4],4095
  1760 00001034 81 C7 00103E00                  	ADD	EDI,1064448
  1761 0000103A 31 C0                           	XOR	EAX,EAX
  1762 0000103C F3                              	REP
  1763 0000103D AB                              	STOSD
  1764 0000103E 8D 65 F4                        	LEA	ESP,DWORD [-12+EBP]
  1765 00001041 5B                              	POP	EBX
  1766 00001042 5E                              	POP	ESI
  1767 00001043 5F                              	POP	EDI
  1768 00001044 5D                              	POP	EBP
  1769 00001045 C3                              	RET
  1770 00001046                                 L384:
  1771 00001046 68 [00000121]                   	PUSH	LC25
  1772 0000104B FF 75 F0                        	PUSH	DWORD [-16+EBP]
  1773 0000104E E8 FFFFF4F0                     	CALL	_cons_putstr0
  1774 00001053 58                              	POP	EAX
  1775 00001054 8B 45 F0                        	MOV	EAX,DWORD [-16+EBP]
  1776 00001057 5A                              	POP	EDX
  1777 00001058 89 45 08                        	MOV	DWORD [8+EBP],EAX
  1778 0000105B 8D 65 F4                        	LEA	ESP,DWORD [-12+EBP]
  1779 0000105E 5B                              	POP	EBX
  1780 0000105F 5E                              	POP	ESI
  1781 00001060 5F                              	POP	EDI
  1782 00001061 5D                              	POP	EBP
  1783 00001062 E9 FFFFF393                     	JMP	_cons_newline
  1784 00001067                                 L383:
  1785 00001067 8D B8 00102600                  	LEA	EDI,DWORD [1058304+EAX]
  1786 0000106D E9 FFFFFF1C                     	JMP	L353
  1787                                          [SECTION .data]
  1788 0000012F                                 LC26:
  1789 0000012F 48 61 72 69 00                  	DB	"Hari",0x00
  1790 00000134                                 LC27:
  1791 00000134 2E 68 72 62 20 66 69 6C 65 20   	DB	".hrb file format error.",0x0A,0x00
       0000013E 66 6F 72 6D 61 74 20 65 72 72 
       00000148 6F 72 2E 0A 00 
  1792                                          [SECTION .text]
  1793 00001072                                 	GLOBAL	_cmd_app
  1794 00001072                                 _cmd_app:
  1795 00001072 55                              	PUSH	EBP
  1796 00001073 89 E5                           	MOV	EBP,ESP
  1797 00001075 57                              	PUSH	EDI
  1798 00001076 56                              	PUSH	ESI
  1799 00001077 31 F6                           	XOR	ESI,ESI
  1800 00001079 53                              	PUSH	EBX
  1801 0000107A 83 EC 34                        	SUB	ESP,52
  1802 0000107D 8B 5D 10                        	MOV	EBX,DWORD [16+EBP]
  1803 00001080 E8 [00000000]                   	CALL	_task_now
  1804 00001085 89 45 C8                        	MOV	DWORD [-56+EBP],EAX
  1805 00001088                                 L391:
  1806 00001088 8A 04 1E                        	MOV	AL,BYTE [ESI+EBX*1]
  1807 0000108B 3C 20                           	CMP	AL,32
  1808 0000108D 7E 0A                           	JLE	L387
  1809 0000108F 88 44 35 D4                     	MOV	BYTE [-44+EBP+ESI*1],AL
  1810 00001093 46                              	INC	ESI
  1811 00001094 83 FE 0C                        	CMP	ESI,12
  1812 00001097 7E EF                           	JLE	L391
  1813 00001099                                 L387:
  1814 00001099 68 000000E0                     	PUSH	224
  1815 0000109E 8D 5D D4                        	LEA	EBX,DWORD [-44+EBP]
  1816 000010A1 68 00102600                     	PUSH	1058304
  1817 000010A6 53                              	PUSH	EBX
  1818 000010A7 C6 44 35 D4 00                  	MOV	BYTE [-44+EBP+ESI*1],0
  1819 000010AC E8 [00000000]                   	CALL	_file_search
  1820 000010B1 83 C4 0C                        	ADD	ESP,12
  1821 000010B4 89 C2                           	MOV	EDX,EAX
  1822 000010B6 85 C0                           	TEST	EAX,EAX
  1823 000010B8 0F 84 000001B6                  	JE	L421
  1824 000010BE                                 L420:
  1825 000010BE 8B 42 1C                        	MOV	EAX,DWORD [28+EDX]
  1826 000010C1 89 45 D0                        	MOV	DWORD [-48+EBP],EAX
  1827 000010C4 8D 45 D0                        	LEA	EAX,DWORD [-48+EBP]
  1828 000010C7 FF 75 0C                        	PUSH	DWORD [12+EBP]
  1829 000010CA 50                              	PUSH	EAX
  1830 000010CB 0F B7 42 1A                     	MOVZX	EAX,WORD [26+EDX]
  1831 000010CF 50                              	PUSH	EAX
  1832 000010D0 E8 [00000000]                   	CALL	_file_loadfile2
  1833 000010D5 83 C4 0C                        	ADD	ESP,12
  1834 000010D8 83 7D D0 23                     	CMP	DWORD [-48+EBP],35
  1835 000010DC 89 45 CC                        	MOV	DWORD [-52+EBP],EAX
  1836 000010DF 7E 1C                           	JLE	L394
  1837 000010E1 89 C6                           	MOV	ESI,EAX
  1838 000010E3 BF [0000012F]                   	MOV	EDI,LC26
  1839 000010E8 FC                              	CLD
  1840 000010E9 83 C6 04                        	ADD	ESI,4
  1841 000010EC B9 00000004                     	MOV	ECX,4
  1842 000010F1 F3                              	REPE
  1843 000010F2 A6                              	CMPSB
  1844 000010F3 75 08                           	JNE	L394
  1845 000010F5 8B 45 CC                        	MOV	EAX,DWORD [-52+EBP]
  1846 000010F8 80 38 00                        	CMP	BYTE [EAX],0
  1847 000010FB 74 34                           	JE	L422
  1848 000010FD                                 L394:
  1849 000010FD 68 [00000134]                   	PUSH	LC27
  1850 00001102 FF 75 08                        	PUSH	DWORD [8+EBP]
  1851 00001105 E8 FFFFF439                     	CALL	_cons_putstr0
  1852 0000110A 58                              	POP	EAX
  1853 0000110B 5A                              	POP	EDX
  1854 0000110C                                 L412:
  1855 0000110C FF 75 D0                        	PUSH	DWORD [-48+EBP]
  1856 0000110F FF 75 CC                        	PUSH	DWORD [-52+EBP]
  1857 00001112 68 003C0000                     	PUSH	3932160
  1858 00001117 E8 [00000000]                   	CALL	_memman_free_4k
  1859 0000111C FF 75 08                        	PUSH	DWORD [8+EBP]
  1860 0000111F E8 FFFFF2D6                     	CALL	_cons_newline
  1861 00001124 B8 00000001                     	MOV	EAX,1
  1862 00001129                                 L385:
  1863 00001129 8D 65 F4                        	LEA	ESP,DWORD [-12+EBP]
  1864 0000112C 5B                              	POP	EBX
  1865 0000112D 5E                              	POP	ESI
  1866 0000112E 5F                              	POP	EDI
  1867 0000112F 5D                              	POP	EBP
  1868 00001130 C3                              	RET
  1869 00001131                                 L422:
  1870 00001131 8B 10                           	MOV	EDX,DWORD [EAX]
  1871 00001133 8B 40 0C                        	MOV	EAX,DWORD [12+EAX]
  1872 00001136 89 55 C4                        	MOV	DWORD [-60+EBP],EDX
  1873 00001139 89 45 C0                        	MOV	DWORD [-64+EBP],EAX
  1874 0000113C 8B 55 CC                        	MOV	EDX,DWORD [-52+EBP]
  1875 0000113F 8B 5A 10                        	MOV	EBX,DWORD [16+EDX]
  1876 00001142 8B 72 14                        	MOV	ESI,DWORD [20+EDX]
  1877 00001145 FF 75 C4                        	PUSH	DWORD [-60+EBP]
  1878 00001148 68 003C0000                     	PUSH	3932160
  1879 0000114D E8 [00000000]                   	CALL	_memman_alloc_4k
  1880 00001152 89 C7                           	MOV	EDI,EAX
  1881 00001154 8B 45 C8                        	MOV	EAX,DWORD [-56+EBP]
  1882 00001157 89 B8 000000A8                  	MOV	DWORD [168+EAX],EDI
  1883 0000115D 8B 45 D0                        	MOV	EAX,DWORD [-48+EBP]
  1884 00001160 68 000040FA                     	PUSH	16634
  1885 00001165 48                              	DEC	EAX
  1886 00001166 FF 75 CC                        	PUSH	DWORD [-52+EBP]
  1887 00001169 50                              	PUSH	EAX
  1888 0000116A 8B 45 C8                        	MOV	EAX,DWORD [-56+EBP]
  1889 0000116D 05 00000094                     	ADD	EAX,148
  1890 00001172 50                              	PUSH	EAX
  1891 00001173 E8 [00000000]                   	CALL	_set_segmdesc
  1892 00001178 8B 45 C4                        	MOV	EAX,DWORD [-60+EBP]
  1893 0000117B 68 000040F2                     	PUSH	16626
  1894 00001180 48                              	DEC	EAX
  1895 00001181 57                              	PUSH	EDI
  1896 00001182 50                              	PUSH	EAX
  1897 00001183 8B 45 C8                        	MOV	EAX,DWORD [-56+EBP]
  1898 00001186 05 0000009C                     	ADD	EAX,156
  1899 0000118B 50                              	PUSH	EAX
  1900 0000118C E8 [00000000]                   	CALL	_set_segmdesc
  1901 00001191 83 C4 28                        	ADD	ESP,40
  1902 00001194 85 DB                           	TEST	EBX,EBX
  1903 00001196 7E 16                           	JLE	L415
  1904 00001198 8B 45 CC                        	MOV	EAX,DWORD [-52+EBP]
  1905 0000119B 8B 4D C0                        	MOV	ECX,DWORD [-64+EBP]
  1906 0000119E 01 F9                           	ADD	ECX,EDI
  1907 000011A0 8D 14 30                        	LEA	EDX,DWORD [EAX+ESI*1]
  1908 000011A3 89 DE                           	MOV	ESI,EBX
  1909 000011A5                                 L399:
  1910 000011A5 8A 02                           	MOV	AL,BYTE [EDX]
  1911 000011A7 42                              	INC	EDX
  1912 000011A8 88 01                           	MOV	BYTE [ECX],AL
  1913 000011AA 41                              	INC	ECX
  1914 000011AB 4E                              	DEC	ESI
  1915 000011AC 75 F7                           	JNE	L399
  1916 000011AE                                 L415:
  1917 000011AE 8B 45 C8                        	MOV	EAX,DWORD [-56+EBP]
  1918 000011B1 BE 000000FF                     	MOV	ESI,255
  1919 000011B6 83 C0 30                        	ADD	EAX,48
  1920 000011B9 50                              	PUSH	EAX
  1921 000011BA 6A 0C                           	PUSH	12
  1922 000011BC FF 75 C0                        	PUSH	DWORD [-64+EBP]
  1923 000011BF 6A 04                           	PUSH	4
  1924 000011C1 6A 1B                           	PUSH	27
  1925 000011C3 E8 [00000000]                   	CALL	_start_app
  1926 000011C8 8B 1D 00000FE4                  	MOV	EBX,DWORD [4068]
  1927 000011CE 83 C4 14                        	ADD	ESP,20
  1928 000011D1 81 C3 00000414                  	ADD	EBX,1044
  1929 000011D7                                 L405:
  1930 000011D7 8B 43 1C                        	MOV	EAX,DWORD [28+EBX]
  1931 000011DA 83 E0 11                        	AND	EAX,17
  1932 000011DD 83 F8 11                        	CMP	EAX,17
  1933 000011E0 74 7A                           	JE	L423
  1934 000011E2                                 L402:
  1935 000011E2 83 C3 28                        	ADD	EBX,40
  1936 000011E5 4E                              	DEC	ESI
  1937 000011E6 79 EF                           	JNS	L405
  1938 000011E8 31 DB                           	XOR	EBX,EBX
  1939 000011EA BE 00000007                     	MOV	ESI,7
  1940 000011EF                                 L411:
  1941 000011EF 8B 55 C8                        	MOV	EDX,DWORD [-56+EBP]
  1942 000011F2 8B 82 000000B0                  	MOV	EAX,DWORD [176+EDX]
  1943 000011F8 83 3C 18 00                     	CMP	DWORD [EAX+EBX*1],0
  1944 000011FC 75 32                           	JNE	L424
  1945 000011FE                                 L408:
  1946 000011FE 83 C3 0C                        	ADD	EBX,12
  1947 00001201 4E                              	DEC	ESI
  1948 00001202 79 EB                           	JNS	L411
  1949 00001204 8B 45 C8                        	MOV	EAX,DWORD [-56+EBP]
  1950 00001207 83 C0 10                        	ADD	EAX,16
  1951 0000120A 50                              	PUSH	EAX
  1952 0000120B E8 [00000000]                   	CALL	_timer_cancelall
  1953 00001210 FF 75 C4                        	PUSH	DWORD [-60+EBP]
  1954 00001213 57                              	PUSH	EDI
  1955 00001214 68 003C0000                     	PUSH	3932160
  1956 00001219 E8 [00000000]                   	CALL	_memman_free_4k
  1957 0000121E 83 C4 10                        	ADD	ESP,16
  1958 00001221 8B 45 C8                        	MOV	EAX,DWORD [-56+EBP]
  1959 00001224 C6 80 000000BD 00               	MOV	BYTE [189+EAX],0
  1960 0000122B E9 FFFFFEDC                     	JMP	L412
  1961 00001230                                 L424:
  1962 00001230 FF 74 18 04                     	PUSH	DWORD [4+EAX+EBX*1]
  1963 00001234 8B 82 000000B0                  	MOV	EAX,DWORD [176+EDX]
  1964 0000123A FF 34 18                        	PUSH	DWORD [EAX+EBX*1]
  1965 0000123D 68 003C0000                     	PUSH	3932160
  1966 00001242 E8 [00000000]                   	CALL	_memman_free_4k
  1967 00001247 83 C4 0C                        	ADD	ESP,12
  1968 0000124A 8B 55 C8                        	MOV	EDX,DWORD [-56+EBP]
  1969 0000124D 8B 82 000000B0                  	MOV	EAX,DWORD [176+EDX]
  1970 00001253 C7 04 18 00000000               	MOV	DWORD [EAX+EBX*1],0
  1971 0000125A EB A2                           	JMP	L408
  1972 0000125C                                 L423:
  1973 0000125C 8B 55 C8                        	MOV	EDX,DWORD [-56+EBP]
  1974 0000125F 39 53 24                        	CMP	DWORD [36+EBX],EDX
  1975 00001262 0F 85 FFFFFF7A                  	JNE	L402
  1976 00001268 53                              	PUSH	EBX
  1977 00001269 E8 [00000000]                   	CALL	_sheet_free
  1978 0000126E 59                              	POP	ECX
  1979 0000126F E9 FFFFFF6E                     	JMP	L402
  1980 00001274                                 L421:
  1981 00001274 80 7C 35 D3 2E                  	CMP	BYTE [-45+EBP+ESI*1],46
  1982 00001279 74 2E                           	JE	L392
  1983 0000127B 68 000000E0                     	PUSH	224
  1984 00001280 68 00102600                     	PUSH	1058304
  1985 00001285 53                              	PUSH	EBX
  1986 00001286 C6 44 35 D4 2E                  	MOV	BYTE [-44+EBP+ESI*1],46
  1987 0000128B C6 44 35 D5 48                  	MOV	BYTE [-43+EBP+ESI*1],72
  1988 00001290 C6 44 35 D6 52                  	MOV	BYTE [-42+EBP+ESI*1],82
  1989 00001295 C6 44 35 D7 42                  	MOV	BYTE [-41+EBP+ESI*1],66
  1990 0000129A C6 44 35 D8 00                  	MOV	BYTE [-40+EBP+ESI*1],0
  1991 0000129F E8 [00000000]                   	CALL	_file_search
  1992 000012A4 83 C4 0C                        	ADD	ESP,12
  1993 000012A7 89 C2                           	MOV	EDX,EAX
  1994 000012A9                                 L392:
  1995 000012A9 85 D2                           	TEST	EDX,EDX
  1996 000012AB 0F 85 FFFFFE0D                  	JNE	L420
  1997 000012B1 31 C0                           	XOR	EAX,EAX
  1998 000012B3 E9 FFFFFE71                     	JMP	L385
  1999 000012B8                                 	GLOBAL	_hrb_api
  2000 000012B8                                 _hrb_api:
  2001 000012B8 55                              	PUSH	EBP
  2002 000012B9 89 E5                           	MOV	EBP,ESP
  2003 000012BB 57                              	PUSH	EDI
  2004 000012BC 56                              	PUSH	ESI
  2005 000012BD 53                              	PUSH	EBX
  2006 000012BE 83 EC 14                        	SUB	ESP,20
  2007 000012C1 8B 75 1C                        	MOV	ESI,DWORD [28+EBP]
  2008 000012C4 E8 [00000000]                   	CALL	_task_now
  2009 000012C9 8B 0D 00000FE4                  	MOV	ECX,DWORD [4068]
  2010 000012CF 83 FE 01                        	CMP	ESI,1
  2011 000012D2 89 45 F0                        	MOV	DWORD [-16+EBP],EAX
  2012 000012D5 89 4D E8                        	MOV	DWORD [-24+EBP],ECX
  2013 000012D8 8B 80 000000A8                  	MOV	EAX,DWORD [168+EAX]
  2014 000012DE 8B 55 F0                        	MOV	EDX,DWORD [-16+EBP]
  2015 000012E1 89 45 EC                        	MOV	DWORD [-20+EBP],EAX
  2016 000012E4 A1 00000FEC                     	MOV	EAX,DWORD [4076]
  2017 000012E9 8B 9A 000000A4                  	MOV	EBX,DWORD [164+EDX]
  2018 000012EF 89 45 E4                        	MOV	DWORD [-28+EBP],EAX
  2019 000012F2 0F 84 0000066C                  	JE	L539
  2020 000012F8 83 FE 02                        	CMP	ESI,2
  2021 000012FB 0F 84 00000651                  	JE	L540
  2022 00001301 83 FE 03                        	CMP	ESI,3
  2023 00001304 0F 84 00000633                  	JE	L541
  2024 0000130A 83 FE 04                        	CMP	ESI,4
  2025 0000130D 0F 84 0000061F                  	JE	L542
  2026 00001313 83 FE 05                        	CMP	ESI,5
  2027 00001316 0F 84 0000059B                  	JE	L543
  2028 0000131C 83 FE 06                        	CMP	ESI,6
  2029 0000131F 0F 84 00000546                  	JE	L544
  2030 00001325 83 FE 07                        	CMP	ESI,7
  2031 00001328 0F 84 00000507                  	JE	L545
  2032 0000132E 83 FE 08                        	CMP	ESI,8
  2033 00001331 0F 84 000004DA                  	JE	L546
  2034 00001337 83 FE 09                        	CMP	ESI,9
  2035 0000133A 0F 84 000004B3                  	JE	L547
  2036 00001340 83 FE 0A                        	CMP	ESI,10
  2037 00001343 0F 84 0000048C                  	JE	L548
  2038 00001349 83 FE 0B                        	CMP	ESI,11
  2039 0000134C 0F 84 0000044C                  	JE	L549
  2040 00001352 83 FE 0C                        	CMP	ESI,12
  2041 00001355 0F 84 00000432                  	JE	L550
  2042 0000135B 83 FE 0D                        	CMP	ESI,13
  2043 0000135E 0F 84 000003BE                  	JE	L551
  2044 00001364 83 FE 0E                        	CMP	ESI,14
  2045 00001367 0F 84 000003A8                  	JE	L552
  2046 0000136D 83 FE 0F                        	CMP	ESI,15
  2047 00001370 0F 84 000002B7                  	JE	L461
  2048 00001376 83 FE 10                        	CMP	ESI,16
  2049 00001379 0F 84 0000029D                  	JE	L553
  2050 0000137F 83 FE 11                        	CMP	ESI,17
  2051 00001382 0F 84 00000277                  	JE	L554
  2052 00001388 83 FE 12                        	CMP	ESI,18
  2053 0000138B 0F 84 0000025C                  	JE	L555
  2054 00001391 83 FE 13                        	CMP	ESI,19
  2055 00001394 0F 84 00000245                  	JE	L556
  2056 0000139A 83 FE 14                        	CMP	ESI,20
  2057 0000139D 0F 84 000001C9                  	JE	L557
  2058 000013A3 83 FE 15                        	CMP	ESI,21
  2059 000013A6 0F 84 0000013D                  	JE	L558
  2060 000013AC 83 FE 16                        	CMP	ESI,22
  2061 000013AF 0F 84 00000114                  	JE	L559
  2062 000013B5 83 FE 17                        	CMP	ESI,23
  2063 000013B8 0F 84 000000BD                  	JE	L560
  2064 000013BE 83 FE 18                        	CMP	ESI,24
  2065 000013C1 0F 84 00000083                  	JE	L561
  2066 000013C7 83 FE 19                        	CMP	ESI,25
  2067 000013CA 74 53                           	JE	L562
  2068 000013CC 83 FE 1A                        	CMP	ESI,26
  2069 000013CF 74 1E                           	JE	L563
  2070 000013D1 83 FE 1B                        	CMP	ESI,27
  2071 000013D4 74 0A                           	JE	L564
  2072 000013D6                                 L427:
  2073 000013D6 31 C0                           	XOR	EAX,EAX
  2074 000013D8                                 L425:
  2075 000013D8 8D 65 F4                        	LEA	ESP,DWORD [-12+EBP]
  2076 000013DB 5B                              	POP	EBX
  2077 000013DC 5E                              	POP	ESI
  2078 000013DD 5F                              	POP	EDI
  2079 000013DE 5D                              	POP	EBP
  2080 000013DF C3                              	RET
  2081 000013E0                                 L564:
  2082 000013E0 8B 5D F0                        	MOV	EBX,DWORD [-16+EBP]
  2083 000013E3 0F B6 83 000000BC               	MOVZX	EAX,BYTE [188+EBX]
  2084 000013EA                                 L532:
  2085 000013EA 89 45 44                        	MOV	DWORD [68+EBP],EAX
  2086 000013ED EB E7                           	JMP	L427
  2087 000013EF                                 L563:
  2088 000013EF 31 F6                           	XOR	ESI,ESI
  2089 000013F1                                 L522:
  2090 000013F1 8B 4D F0                        	MOV	ECX,DWORD [-16+EBP]
  2091 000013F4 8B 55 18                        	MOV	EDX,DWORD [24+EBP]
  2092 000013F7 03 55 EC                        	ADD	EDX,DWORD [-20+EBP]
  2093 000013FA 8B 81 000000B8                  	MOV	EAX,DWORD [184+ECX]
  2094 00001400 8A 04 06                        	MOV	AL,BYTE [ESI+EAX*1]
  2095 00001403 88 04 16                        	MOV	BYTE [ESI+EDX*1],AL
  2096 00001406 8B 81 000000B8                  	MOV	EAX,DWORD [184+ECX]
  2097 0000140C 80 3C 06 00                     	CMP	BYTE [ESI+EAX*1],0
  2098 00001410 74 08                           	JE	L523
  2099 00001412 3B 75 20                        	CMP	ESI,DWORD [32+EBP]
  2100 00001415 7D 03                           	JGE	L523
  2101 00001417 46                              	INC	ESI
  2102 00001418 EB D7                           	JMP	L522
  2103 0000141A                                 L523:
  2104 0000141A 89 75 44                        	MOV	DWORD [68+EBP],ESI
  2105 0000141D EB B7                           	JMP	L427
  2106 0000141F                                 L562:
  2107 0000141F 31 F6                           	XOR	ESI,ESI
  2108 00001421 8B 5D 24                        	MOV	EBX,DWORD [36+EBP]
  2109 00001424 3B 75 20                        	CMP	ESI,DWORD [32+EBP]
  2110 00001427 7D F1                           	JGE	L523
  2111 00001429                                 L519:
  2112 00001429 8B 4B 08                        	MOV	ECX,DWORD [8+EBX]
  2113 0000142C 3B 4B 04                        	CMP	ECX,DWORD [4+EBX]
  2114 0000142F 74 E9                           	JE	L523
  2115 00001431 8B 45 18                        	MOV	EAX,DWORD [24+EBP]
  2116 00001434 8B 13                           	MOV	EDX,DWORD [EBX]
  2117 00001436 03 45 EC                        	ADD	EAX,DWORD [-20+EBP]
  2118 00001439 8A 14 11                        	MOV	DL,BYTE [ECX+EDX*1]
  2119 0000143C 88 14 06                        	MOV	BYTE [ESI+EAX*1],DL
  2120 0000143F 46                              	INC	ESI
  2121 00001440 FF 43 08                        	INC	DWORD [8+EBX]
  2122 00001443 3B 75 20                        	CMP	ESI,DWORD [32+EBP]
  2123 00001446 7C E1                           	JL	L519
  2124 00001448 EB D0                           	JMP	L523
  2125 0000144A                                 L561:
  2126 0000144A 8B 5D 24                        	MOV	EBX,DWORD [36+EBP]
  2127 0000144D 83 7D 20 00                     	CMP	DWORD [32+EBP],0
  2128 00001451 75 05                           	JNE	L507
  2129 00001453 8B 43 04                        	MOV	EAX,DWORD [4+EBX]
  2130 00001456 EB 92                           	JMP	L532
  2131 00001458                                 L507:
  2132 00001458 83 7D 20 01                     	CMP	DWORD [32+EBP],1
  2133 0000145C 74 15                           	JE	L565
  2134 0000145E 83 7D 20 02                     	CMP	DWORD [32+EBP],2
  2135 00001462 0F 85 FFFFFF6E                  	JNE	L427
  2136 00001468 8B 43 08                        	MOV	EAX,DWORD [8+EBX]
  2137 0000146B 2B 43 04                        	SUB	EAX,DWORD [4+EBX]
  2138 0000146E E9 FFFFFF77                     	JMP	L532
  2139 00001473                                 L565:
  2140 00001473 8B 43 08                        	MOV	EAX,DWORD [8+EBX]
  2141 00001476 E9 FFFFFF6F                     	JMP	L532
  2142 0000147B                                 L560:
  2143 0000147B 8B 5D 24                        	MOV	EBX,DWORD [36+EBP]
  2144 0000147E 83 7D 20 00                     	CMP	DWORD [32+EBP],0
  2145 00001482 74 35                           	JE	L531
  2146 00001484 83 7D 20 01                     	CMP	DWORD [32+EBP],1
  2147 00001488 74 37                           	JE	L566
  2148 0000148A 83 7D 20 02                     	CMP	DWORD [32+EBP],2
  2149 0000148E 74 23                           	JE	L567
  2150 00001490                                 L499:
  2151 00001490 83 7B 08 00                     	CMP	DWORD [8+EBX],0
  2152 00001494 78 14                           	JS	L568
  2153 00001496                                 L503:
  2154 00001496 8B 43 04                        	MOV	EAX,DWORD [4+EBX]
  2155 00001499 39 43 08                        	CMP	DWORD [8+EBX],EAX
  2156 0000149C 0F 8E FFFFFF34                  	JLE	L427
  2157 000014A2 89 43 08                        	MOV	DWORD [8+EBX],EAX
  2158 000014A5 E9 FFFFFF2C                     	JMP	L427
  2159 000014AA                                 L568:
  2160 000014AA C7 43 08 00000000               	MOV	DWORD [8+EBX],0
  2161 000014B1 EB E3                           	JMP	L503
  2162 000014B3                                 L567:
  2163 000014B3 8B 43 04                        	MOV	EAX,DWORD [4+EBX]
  2164 000014B6 01 45 18                        	ADD	DWORD [24+EBP],EAX
  2165 000014B9                                 L531:
  2166 000014B9 8B 55 18                        	MOV	EDX,DWORD [24+EBP]
  2167 000014BC 89 53 08                        	MOV	DWORD [8+EBX],EDX
  2168 000014BF EB CF                           	JMP	L499
  2169 000014C1                                 L566:
  2170 000014C1 8B 4D 18                        	MOV	ECX,DWORD [24+EBP]
  2171 000014C4 01 4B 08                        	ADD	DWORD [8+EBX],ECX
  2172 000014C7 EB C7                           	JMP	L499
  2173 000014C9                                 L559:
  2174 000014C9 8B 5D 24                        	MOV	EBX,DWORD [36+EBP]
  2175 000014CC FF 73 04                        	PUSH	DWORD [4+EBX]
  2176 000014CF FF 33                           	PUSH	DWORD [EBX]
  2177 000014D1 68 003C0000                     	PUSH	3932160
  2178 000014D6 E8 [00000000]                   	CALL	_memman_free_4k
  2179 000014DB C7 03 00000000                  	MOV	DWORD [EBX],0
  2180 000014E1                                 L533:
  2181 000014E1 83 C4 0C                        	ADD	ESP,12
  2182 000014E4 E9 FFFFFEED                     	JMP	L427
  2183 000014E9                                 L558:
  2184 000014E9 31 F6                           	XOR	ESI,ESI
  2185 000014EB 31 C0                           	XOR	EAX,EAX
  2186 000014ED                                 L491:
  2187 000014ED 8B 4D F0                        	MOV	ECX,DWORD [-16+EBP]
  2188 000014F0 8B 91 000000B0                  	MOV	EDX,DWORD [176+ECX]
  2189 000014F6 83 3C 02 00                     	CMP	DWORD [EDX+EAX*1],0
  2190 000014FA 74 09                           	JE	L487
  2191 000014FC 46                              	INC	ESI
  2192 000014FD 83 C0 0C                        	ADD	EAX,12
  2193 00001500 83 FE 07                        	CMP	ESI,7
  2194 00001503 7E E8                           	JLE	L491
  2195 00001505                                 L487:
  2196 00001505 6B C6 0C                        	IMUL	EAX,ESI,12
  2197 00001508 C7 45 44 00000000               	MOV	DWORD [68+EBP],0
  2198 0000150F 8D 1C 10                        	LEA	EBX,DWORD [EAX+EDX*1]
  2199 00001512 83 FE 07                        	CMP	ESI,7
  2200 00001515 0F 8F FFFFFEBB                  	JG	L427
  2201 0000151B 8B 45 18                        	MOV	EAX,DWORD [24+EBP]
  2202 0000151E 68 000000E0                     	PUSH	224
  2203 00001523 03 45 EC                        	ADD	EAX,DWORD [-20+EBP]
  2204 00001526 68 00102600                     	PUSH	1058304
  2205 0000152B 50                              	PUSH	EAX
  2206 0000152C E8 [00000000]                   	CALL	_file_search
  2207 00001531 83 C4 0C                        	ADD	ESP,12
  2208 00001534 89 C2                           	MOV	EDX,EAX
  2209 00001536 85 C0                           	TEST	EAX,EAX
  2210 00001538 0F 84 FFFFFE98                  	JE	L427
  2211 0000153E 89 5D 44                        	MOV	DWORD [68+EBP],EBX
  2212 00001541 8B 40 1C                        	MOV	EAX,DWORD [28+EAX]
  2213 00001544 89 43 04                        	MOV	DWORD [4+EBX],EAX
  2214 00001547 8B 45 F0                        	MOV	EAX,DWORD [-16+EBP]
  2215 0000154A C7 43 08 00000000               	MOV	DWORD [8+EBX],0
  2216 00001551 FF B0 000000B4                  	PUSH	DWORD [180+EAX]
  2217 00001557 8D 43 04                        	LEA	EAX,DWORD [4+EBX]
  2218 0000155A 50                              	PUSH	EAX
  2219 0000155B 0F B7 42 1A                     	MOVZX	EAX,WORD [26+EDX]
  2220 0000155F 50                              	PUSH	EAX
  2221 00001560 E8 [00000000]                   	CALL	_file_loadfile2
  2222 00001565 89 03                           	MOV	DWORD [EBX],EAX
  2223 00001567 E9 FFFFFF75                     	JMP	L533
  2224 0000156C                                 L557:
  2225 0000156C 8B 55 24                        	MOV	EDX,DWORD [36+EBP]
  2226 0000156F 85 D2                           	TEST	EDX,EDX
  2227 00001571 75 19                           	JNE	L482
  2228 00001573 6A 61                           	PUSH	97
  2229 00001575 E8 [00000000]                   	CALL	_io_in8
  2230 0000157A 89 C6                           	MOV	ESI,EAX
  2231 0000157C 83 E6 0D                        	AND	ESI,13
  2232 0000157F 56                              	PUSH	ESI
  2233 00001580 6A 61                           	PUSH	97
  2234 00001582 E8 [00000000]                   	CALL	_io_out8
  2235 00001587 E9 FFFFFF55                     	JMP	L533
  2236 0000158C                                 L482:
  2237 0000158C B9 471E7B60                     	MOV	ECX,1193180000
  2238 00001591 89 D3                           	MOV	EBX,EDX
  2239 00001593 89 C8                           	MOV	EAX,ECX
  2240 00001595 68 000000B6                     	PUSH	182
  2241 0000159A 99                              	CDQ
  2242 0000159B F7 FB                           	IDIV	EBX
  2243 0000159D 6A 43                           	PUSH	67
  2244 0000159F 89 C6                           	MOV	ESI,EAX
  2245 000015A1 E8 [00000000]                   	CALL	_io_out8
  2246 000015A6 89 F0                           	MOV	EAX,ESI
  2247 000015A8 C1 FE 08                        	SAR	ESI,8
  2248 000015AB 25 000000FF                     	AND	EAX,255
  2249 000015B0 50                              	PUSH	EAX
  2250 000015B1 6A 42                           	PUSH	66
  2251 000015B3 E8 [00000000]                   	CALL	_io_out8
  2252 000015B8 56                              	PUSH	ESI
  2253 000015B9 6A 42                           	PUSH	66
  2254 000015BB E8 [00000000]                   	CALL	_io_out8
  2255 000015C0 6A 61                           	PUSH	97
  2256 000015C2 E8 [00000000]                   	CALL	_io_in8
  2257 000015C7 89 C6                           	MOV	ESI,EAX
  2258 000015C9 83 CE 03                        	OR	ESI,3
  2259 000015CC 83 E6 0F                        	AND	ESI,15
  2260 000015CF 56                              	PUSH	ESI
  2261 000015D0 6A 61                           	PUSH	97
  2262 000015D2 E8 [00000000]                   	CALL	_io_out8
  2263 000015D7 83 C4 24                        	ADD	ESP,36
  2264 000015DA E9 FFFFFDF7                     	JMP	L427
  2265 000015DF                                 L556:
  2266 000015DF FF 75 18                        	PUSH	DWORD [24+EBP]
  2267 000015E2 E8 [00000000]                   	CALL	_timer_free
  2268 000015E7                                 L534:
  2269 000015E7 5B                              	POP	EBX
  2270 000015E8 E9 FFFFFDE9                     	JMP	L427
  2271 000015ED                                 L555:
  2272 000015ED FF 75 24                        	PUSH	DWORD [36+EBP]
  2273 000015F0 FF 75 18                        	PUSH	DWORD [24+EBP]
  2274 000015F3 E8 [00000000]                   	CALL	_timer_settime
  2275 000015F8                                 L536:
  2276 000015F8 5E                              	POP	ESI
  2277 000015F9 5F                              	POP	EDI
  2278 000015FA E9 FFFFFDD7                     	JMP	L427
  2279 000015FF                                 L554:
  2280 000015FF 8B 45 24                        	MOV	EAX,DWORD [36+EBP]
  2281 00001602 05 00000100                     	ADD	EAX,256
  2282 00001607 50                              	PUSH	EAX
  2283 00001608 8B 45 F0                        	MOV	EAX,DWORD [-16+EBP]
  2284 0000160B 83 C0 10                        	ADD	EAX,16
  2285 0000160E 50                              	PUSH	EAX
  2286 0000160F FF 75 18                        	PUSH	DWORD [24+EBP]
  2287 00001612 E8 [00000000]                   	CALL	_timer_init
  2288 00001617 E9 FFFFFEC5                     	JMP	L533
  2289 0000161C                                 L553:
  2290 0000161C E8 [00000000]                   	CALL	_timer_alloc
  2291 00001621 89 45 44                        	MOV	DWORD [68+EBP],EAX
  2292 00001624 C6 40 09 01                     	MOV	BYTE [9+EAX],1
  2293 00001628 E9 FFFFFDA9                     	JMP	L427
  2294 0000162D                                 L461:
  2295 0000162D E8 [00000000]                   	CALL	_io_cli
  2296 00001632 8B 45 F0                        	MOV	EAX,DWORD [-16+EBP]
  2297 00001635 83 C0 10                        	ADD	EAX,16
  2298 00001638 50                              	PUSH	EAX
  2299 00001639 E8 [00000000]                   	CALL	_fifo32_status
  2300 0000163E 5A                              	POP	EDX
  2301 0000163F 85 C0                           	TEST	EAX,EAX
  2302 00001641 75 13                           	JNE	L464
  2303 00001643 83 7D 24 00                     	CMP	DWORD [36+EBP],0
  2304 00001647 0F 84 000000B7                  	JE	L465
  2305 0000164D FF 75 F0                        	PUSH	DWORD [-16+EBP]
  2306 00001650 E8 [00000000]                   	CALL	_task_sleep
  2307 00001655 58                              	POP	EAX
  2308 00001656                                 L464:
  2309 00001656 8B 7D F0                        	MOV	EDI,DWORD [-16+EBP]
  2310 00001659 83 C7 10                        	ADD	EDI,16
  2311 0000165C 57                              	PUSH	EDI
  2312 0000165D E8 [00000000]                   	CALL	_fifo32_get
  2313 00001662 89 C6                           	MOV	ESI,EAX
  2314 00001664 E8 [00000000]                   	CALL	_io_sti
  2315 00001669 58                              	POP	EAX
  2316 0000166A 83 FE 01                        	CMP	ESI,1
  2317 0000166D 7E 73                           	JLE	L569
  2318 0000166F                                 L467:
  2319 0000166F 83 FE 02                        	CMP	ESI,2
  2320 00001672 74 65                           	JE	L570
  2321 00001674                                 L468:
  2322 00001674 83 FE 03                        	CMP	ESI,3
  2323 00001677 74 57                           	JE	L571
  2324 00001679                                 L469:
  2325 00001679 83 FE 04                        	CMP	ESI,4
  2326 0000167C 74 14                           	JE	L572
  2327 0000167E                                 L470:
  2328 0000167E 8D 86 FFFFFF00                  	LEA	EAX,DWORD [-256+ESI]
  2329 00001684 81 FE 000000FF                  	CMP	ESI,255
  2330 0000168A 0F 8F FFFFFD5A                  	JG	L532
  2331 00001690 EB 9B                           	JMP	L461
  2332 00001692                                 L572:
  2333 00001692 FF 73 18                        	PUSH	DWORD [24+EBX]
  2334 00001695 E8 [00000000]                   	CALL	_timer_cancel
  2335 0000169A E8 [00000000]                   	CALL	_io_cli
  2336 0000169F 8B 03                           	MOV	EAX,DWORD [EBX]
  2337 000016A1 2B 45 E8                        	SUB	EAX,DWORD [-24+EBP]
  2338 000016A4 2D 00000414                     	SUB	EAX,1044
  2339 000016A9 C1 F8 03                        	SAR	EAX,3
  2340 000016AC 69 C0 CCCCCCCD                  	IMUL	EAX,EAX,-858993459
  2341 000016B2 05 000007E8                     	ADD	EAX,2024
  2342 000016B7 50                              	PUSH	EAX
  2343 000016B8 FF 75 E4                        	PUSH	DWORD [-28+EBP]
  2344 000016BB E8 [00000000]                   	CALL	_fifo32_put
  2345 000016C0 C7 03 00000000                  	MOV	DWORD [EBX],0
  2346 000016C6 E8 [00000000]                   	CALL	_io_sti
  2347 000016CB 83 C4 0C                        	ADD	ESP,12
  2348 000016CE EB AE                           	JMP	L470
  2349 000016D0                                 L571:
  2350 000016D0 C7 43 0C FFFFFFFF               	MOV	DWORD [12+EBX],-1
  2351 000016D7 EB A0                           	JMP	L469
  2352 000016D9                                 L570:
  2353 000016D9 C7 43 0C 00000007               	MOV	DWORD [12+EBX],7
  2354 000016E0 EB 92                           	JMP	L468
  2355 000016E2                                 L569:
  2356 000016E2 83 3B 00                        	CMP	DWORD [EBX],0
  2357 000016E5 74 88                           	JE	L467
  2358 000016E7 6A 01                           	PUSH	1
  2359 000016E9 57                              	PUSH	EDI
  2360 000016EA FF 73 18                        	PUSH	DWORD [24+EBX]
  2361 000016ED E8 [00000000]                   	CALL	_timer_init
  2362 000016F2 6A 32                           	PUSH	50
  2363 000016F4 FF 73 18                        	PUSH	DWORD [24+EBX]
  2364 000016F7 E8 [00000000]                   	CALL	_timer_settime
  2365 000016FC 83 C4 14                        	ADD	ESP,20
  2366 000016FF E9 FFFFFF6B                     	JMP	L467
  2367 00001704                                 L465:
  2368 00001704 E8 [00000000]                   	CALL	_io_sti
  2369 00001709 C7 45 44 FFFFFFFF               	MOV	DWORD [68+EBP],-1
  2370 00001710 E9 FFFFFCC1                     	JMP	L427
  2371 00001715                                 L552:
  2372 00001715 FF 75 18                        	PUSH	DWORD [24+EBP]
  2373 00001718 E8 [00000000]                   	CALL	_sheet_free
  2374 0000171D E9 FFFFFEC5                     	JMP	L534
  2375 00001722                                 L551:
  2376 00001722 FF 75 10                        	PUSH	DWORD [16+EBP]
  2377 00001725 FF 75 08                        	PUSH	DWORD [8+EBP]
  2378 00001728 FF 75 0C                        	PUSH	DWORD [12+EBP]
  2379 0000172B FF 75 20                        	PUSH	DWORD [32+EBP]
  2380 0000172E 8B 7D 18                        	MOV	EDI,DWORD [24+EBP]
  2381 00001731 FF 75 24                        	PUSH	DWORD [36+EBP]
  2382 00001734 83 E7 FE                        	AND	EDI,-2
  2383 00001737 57                              	PUSH	EDI
  2384 00001738 E8 000002CB                     	CALL	_hrb_api_linewin
  2385 0000173D 83 C4 18                        	ADD	ESP,24
  2386 00001740 F7 45 18 00000001               	TEST	DWORD [24+EBP],1
  2387 00001747 0F 85 FFFFFC89                  	JNE	L427
  2388 0000174D 8B 45 24                        	MOV	EAX,DWORD [36+EBP]
  2389 00001750 3B 45 0C                        	CMP	EAX,DWORD [12+EBP]
  2390 00001753 7E 09                           	JLE	L455
  2391 00001755 8B 4D 0C                        	MOV	ECX,DWORD [12+EBP]
  2392 00001758 89 45 0C                        	MOV	DWORD [12+EBP],EAX
  2393 0000175B 89 4D 24                        	MOV	DWORD [36+EBP],ECX
  2394 0000175E                                 L455:
  2395 0000175E 8B 5D 08                        	MOV	EBX,DWORD [8+EBP]
  2396 00001761 39 5D 20                        	CMP	DWORD [32+EBP],EBX
  2397 00001764 7E 09                           	JLE	L456
  2398 00001766 8B 75 20                        	MOV	ESI,DWORD [32+EBP]
  2399 00001769 89 5D 20                        	MOV	DWORD [32+EBP],EBX
  2400 0000176C 89 75 08                        	MOV	DWORD [8+EBP],ESI
  2401 0000176F                                 L456:
  2402 0000176F 8B 45 08                        	MOV	EAX,DWORD [8+EBP]
  2403 00001772 40                              	INC	EAX
  2404 00001773 50                              	PUSH	EAX
  2405 00001774 8B 45 0C                        	MOV	EAX,DWORD [12+EBP]
  2406 00001777 40                              	INC	EAX
  2407 00001778 50                              	PUSH	EAX
  2408 00001779 FF 75 20                        	PUSH	DWORD [32+EBP]
  2409 0000177C FF 75 24                        	PUSH	DWORD [36+EBP]
  2410 0000177F                                 L538:
  2411 0000177F 57                              	PUSH	EDI
  2412 00001780                                 L535:
  2413 00001780 E8 [00000000]                   	CALL	_sheet_refresh
  2414 00001785                                 L537:
  2415 00001785 83 C4 14                        	ADD	ESP,20
  2416 00001788 E9 FFFFFC49                     	JMP	L427
  2417 0000178D                                 L550:
  2418 0000178D FF 75 08                        	PUSH	DWORD [8+EBP]
  2419 00001790 FF 75 0C                        	PUSH	DWORD [12+EBP]
  2420 00001793 FF 75 20                        	PUSH	DWORD [32+EBP]
  2421 00001796 FF 75 24                        	PUSH	DWORD [36+EBP]
  2422 00001799 FF 75 18                        	PUSH	DWORD [24+EBP]
  2423 0000179C EB E2                           	JMP	L535
  2424 0000179E                                 L549:
  2425 0000179E 8B 7D 18                        	MOV	EDI,DWORD [24+EBP]
  2426 000017A1 8B 45 08                        	MOV	EAX,DWORD [8+EBP]
  2427 000017A4 83 E7 FE                        	AND	EDI,-2
  2428 000017A7 8A 55 24                        	MOV	DL,BYTE [36+EBP]
  2429 000017AA 0F AF 47 04                     	IMUL	EAX,DWORD [4+EDI]
  2430 000017AE 03 45 0C                        	ADD	EAX,DWORD [12+EBP]
  2431 000017B1 8B 0F                           	MOV	ECX,DWORD [EDI]
  2432 000017B3 88 14 08                        	MOV	BYTE [EAX+ECX*1],DL
  2433 000017B6 F7 45 18 00000001               	TEST	DWORD [24+EBP],1
  2434 000017BD 0F 85 FFFFFC13                  	JNE	L427
  2435 000017C3 8B 45 08                        	MOV	EAX,DWORD [8+EBP]
  2436 000017C6 40                              	INC	EAX
  2437 000017C7 50                              	PUSH	EAX
  2438 000017C8 8B 45 0C                        	MOV	EAX,DWORD [12+EBP]
  2439 000017CB 40                              	INC	EAX
  2440 000017CC 50                              	PUSH	EAX
  2441 000017CD FF 75 08                        	PUSH	DWORD [8+EBP]
  2442 000017D0 FF 75 0C                        	PUSH	DWORD [12+EBP]
  2443 000017D3 EB AA                           	JMP	L538
  2444 000017D5                                 L548:
  2445 000017D5 8B 45 20                        	MOV	EAX,DWORD [32+EBP]
  2446 000017D8 83 C0 0F                        	ADD	EAX,15
  2447 000017DB 83 E0 F0                        	AND	EAX,-16
  2448 000017DE 50                              	PUSH	EAX
  2449 000017DF 8B 45 18                        	MOV	EAX,DWORD [24+EBP]
  2450 000017E2 03 45 EC                        	ADD	EAX,DWORD [-20+EBP]
  2451 000017E5 FF 75 24                        	PUSH	DWORD [36+EBP]
  2452 000017E8 50                              	PUSH	EAX
  2453 000017E9 E8 [00000000]                   	CALL	_memman_free
  2454 000017EE E9 FFFFFCEE                     	JMP	L533
  2455 000017F3                                 L547:
  2456 000017F3 8B 45 20                        	MOV	EAX,DWORD [32+EBP]
  2457 000017F6 83 C0 0F                        	ADD	EAX,15
  2458 000017F9 83 E0 F0                        	AND	EAX,-16
  2459 000017FC 50                              	PUSH	EAX
  2460 000017FD 8B 45 18                        	MOV	EAX,DWORD [24+EBP]
  2461 00001800 03 45 EC                        	ADD	EAX,DWORD [-20+EBP]
  2462 00001803 50                              	PUSH	EAX
  2463 00001804 E8 [00000000]                   	CALL	_memman_alloc
  2464 00001809 89 45 44                        	MOV	DWORD [68+EBP],EAX
  2465 0000180C E9 FFFFFDE7                     	JMP	L536
  2466 00001811                                 L546:
  2467 00001811 8B 5D 18                        	MOV	EBX,DWORD [24+EBP]
  2468 00001814 03 5D EC                        	ADD	EBX,DWORD [-20+EBP]
  2469 00001817 53                              	PUSH	EBX
  2470 00001818 E8 [00000000]                   	CALL	_memman_init
  2471 0000181D 83 65 20 F0                     	AND	DWORD [32+EBP],-16
  2472 00001821 FF 75 20                        	PUSH	DWORD [32+EBP]
  2473 00001824 FF 75 24                        	PUSH	DWORD [36+EBP]
  2474 00001827 53                              	PUSH	EBX
  2475 00001828 E8 [00000000]                   	CALL	_memman_free
  2476 0000182D 83 C4 10                        	ADD	ESP,16
  2477 00001830 E9 FFFFFBA1                     	JMP	L427
  2478 00001835                                 L545:
  2479 00001835 FF 75 08                        	PUSH	DWORD [8+EBP]
  2480 00001838 FF 75 0C                        	PUSH	DWORD [12+EBP]
  2481 0000183B FF 75 20                        	PUSH	DWORD [32+EBP]
  2482 0000183E 8B 7D 18                        	MOV	EDI,DWORD [24+EBP]
  2483 00001841 FF 75 24                        	PUSH	DWORD [36+EBP]
  2484 00001844 83 E7 FE                        	AND	EDI,-2
  2485 00001847 0F B6 45 10                     	MOVZX	EAX,BYTE [16+EBP]
  2486 0000184B 50                              	PUSH	EAX
  2487 0000184C FF 77 04                        	PUSH	DWORD [4+EDI]
  2488 0000184F FF 37                           	PUSH	DWORD [EDI]
  2489 00001851 E8 [00000000]                   	CALL	_boxfill8
  2490 00001856 83 C4 1C                        	ADD	ESP,28
  2491 00001859 F7 45 18 00000001               	TEST	DWORD [24+EBP],1
  2492 00001860 0F 85 FFFFFB70                  	JNE	L427
  2493 00001866 E9 FFFFFF04                     	JMP	L456
  2494 0000186B                                 L544:
  2495 0000186B 8B 45 10                        	MOV	EAX,DWORD [16+EBP]
  2496 0000186E 8B 7D 18                        	MOV	EDI,DWORD [24+EBP]
  2497 00001871 03 45 EC                        	ADD	EAX,DWORD [-20+EBP]
  2498 00001874 83 E7 FE                        	AND	EDI,-2
  2499 00001877 50                              	PUSH	EAX
  2500 00001878 0F BE 45 24                     	MOVSX	EAX,BYTE [36+EBP]
  2501 0000187C 50                              	PUSH	EAX
  2502 0000187D FF 75 08                        	PUSH	DWORD [8+EBP]
  2503 00001880 FF 75 0C                        	PUSH	DWORD [12+EBP]
  2504 00001883 FF 77 04                        	PUSH	DWORD [4+EDI]
  2505 00001886 FF 37                           	PUSH	DWORD [EDI]
  2506 00001888 E8 [00000000]                   	CALL	_putfonts8_asc
  2507 0000188D 83 C4 18                        	ADD	ESP,24
  2508 00001890 F7 45 18 00000001               	TEST	DWORD [24+EBP],1
  2509 00001897 0F 85 FFFFFB39                  	JNE	L427
  2510 0000189D 8B 55 0C                        	MOV	EDX,DWORD [12+EBP]
  2511 000018A0 8B 45 08                        	MOV	EAX,DWORD [8+EBP]
  2512 000018A3 8B 5D 20                        	MOV	EBX,DWORD [32+EBP]
  2513 000018A6 83 C0 10                        	ADD	EAX,16
  2514 000018A9 50                              	PUSH	EAX
  2515 000018AA 8D 04 DA                        	LEA	EAX,DWORD [EDX+EBX*8]
  2516 000018AD 50                              	PUSH	EAX
  2517 000018AE FF 75 08                        	PUSH	DWORD [8+EBP]
  2518 000018B1 52                              	PUSH	EDX
  2519 000018B2 E9 FFFFFEC8                     	JMP	L538
  2520 000018B7                                 L543:
  2521 000018B7 FF 75 E8                        	PUSH	DWORD [-24+EBP]
  2522 000018BA E8 [00000000]                   	CALL	_sheet_alloc
  2523 000018BF 8B 5D 18                        	MOV	EBX,DWORD [24+EBP]
  2524 000018C2 8B 55 F0                        	MOV	EDX,DWORD [-16+EBP]
  2525 000018C5 89 C7                           	MOV	EDI,EAX
  2526 000018C7 89 50 24                        	MOV	DWORD [36+EAX],EDX
  2527 000018CA 03 5D EC                        	ADD	EBX,DWORD [-20+EBP]
  2528 000018CD 83 48 1C 10                     	OR	DWORD [28+EAX],16
  2529 000018D1 FF 75 24                        	PUSH	DWORD [36+EBP]
  2530 000018D4 FF 75 08                        	PUSH	DWORD [8+EBP]
  2531 000018D7 FF 75 0C                        	PUSH	DWORD [12+EBP]
  2532 000018DA 53                              	PUSH	EBX
  2533 000018DB 50                              	PUSH	EAX
  2534 000018DC E8 [00000000]                   	CALL	_sheet_setbuf
  2535 000018E1 8B 45 20                        	MOV	EAX,DWORD [32+EBP]
  2536 000018E4 03 45 EC                        	ADD	EAX,DWORD [-20+EBP]
  2537 000018E7 6A 00                           	PUSH	0
  2538 000018E9 50                              	PUSH	EAX
  2539 000018EA FF 75 08                        	PUSH	DWORD [8+EBP]
  2540 000018ED FF 75 0C                        	PUSH	DWORD [12+EBP]
  2541 000018F0 53                              	PUSH	EBX
  2542 000018F1 BB 00000002                     	MOV	EBX,2
  2543 000018F6 E8 [00000000]                   	CALL	_make_window8
  2544 000018FB 8B 4D E8                        	MOV	ECX,DWORD [-24+EBP]
  2545 000018FE 83 C4 2C                        	ADD	ESP,44
  2546 00001901 8B 41 0C                        	MOV	EAX,DWORD [12+ECX]
  2547 00001904 2B 45 08                        	SUB	EAX,DWORD [8+EBP]
  2548 00001907 99                              	CDQ
  2549 00001908 F7 FB                           	IDIV	EBX
  2550 0000190A 50                              	PUSH	EAX
  2551 0000190B 8B 41 08                        	MOV	EAX,DWORD [8+ECX]
  2552 0000190E 2B 45 0C                        	SUB	EAX,DWORD [12+EBP]
  2553 00001911 99                              	CDQ
  2554 00001912 F7 FB                           	IDIV	EBX
  2555 00001914 83 E0 FC                        	AND	EAX,-4
  2556 00001917 50                              	PUSH	EAX
  2557 00001918 57                              	PUSH	EDI
  2558 00001919 E8 [00000000]                   	CALL	_sheet_slide
  2559 0000191E 8B 4D E8                        	MOV	ECX,DWORD [-24+EBP]
  2560 00001921 FF 71 10                        	PUSH	DWORD [16+ECX]
  2561 00001924 57                              	PUSH	EDI
  2562 00001925 E8 [00000000]                   	CALL	_sheet_updown
  2563 0000192A 89 7D 44                        	MOV	DWORD [68+EBP],EDI
  2564 0000192D E9 FFFFFE53                     	JMP	L537
  2565 00001932                                 L542:
  2566 00001932 8B 45 F0                        	MOV	EAX,DWORD [-16+EBP]
  2567 00001935 83 C0 30                        	ADD	EAX,48
  2568 00001938 E9 FFFFFA9B                     	JMP	L425
  2569 0000193D                                 L541:
  2570 0000193D 8B 45 18                        	MOV	EAX,DWORD [24+EBP]
  2571 00001940 03 45 EC                        	ADD	EAX,DWORD [-20+EBP]
  2572 00001943 FF 75 20                        	PUSH	DWORD [32+EBP]
  2573 00001946 50                              	PUSH	EAX
  2574 00001947 53                              	PUSH	EBX
  2575 00001948 E8 FFFFEC24                     	CALL	_cons_putstr1
  2576 0000194D E9 FFFFFB8F                     	JMP	L533
  2577 00001952                                 L540:
  2578 00001952 8B 45 18                        	MOV	EAX,DWORD [24+EBP]
  2579 00001955 03 45 EC                        	ADD	EAX,DWORD [-20+EBP]
  2580 00001958 50                              	PUSH	EAX
  2581 00001959 53                              	PUSH	EBX
  2582 0000195A E8 FFFFEBE4                     	CALL	_cons_putstr0
  2583 0000195F E9 FFFFFC94                     	JMP	L536
  2584 00001964                                 L539:
  2585 00001964 6A 01                           	PUSH	1
  2586 00001966 0F B6 45 24                     	MOVZX	EAX,BYTE [36+EBP]
  2587 0000196A 50                              	PUSH	EAX
  2588 0000196B 53                              	PUSH	EBX
  2589 0000196C E8 FFFFE9CA                     	CALL	_cons_putchar
  2590 00001971 E9 FFFFFB6B                     	JMP	L533
  2591                                          [SECTION .data]
  2592 0000014D                                 LC28:
  2593 0000014D 0A 49 4E 54 20 30 43 20 3A 0A   	DB	0x0A,"INT 0C :",0x0A," Stack Exception.",0x0A,0x00
       00000157 20 53 74 61 63 6B 20 45 78 63 
       00000161 65 70 74 69 6F 6E 2E 0A 00 
  2594 0000016A                                 LC29:
  2595 0000016A 45 49 50 20 3D 20 25 30 38 58   	DB	"EIP = %08X",0x0A,0x00
       00000174 0A 00 
  2596                                          [SECTION .text]
  2597 00001976                                 	GLOBAL	_inthandler0c
  2598 00001976                                 _inthandler0c:
  2599 00001976 55                              	PUSH	EBP
  2600 00001977 89 E5                           	MOV	EBP,ESP
  2601 00001979 57                              	PUSH	EDI
  2602 0000197A 56                              	PUSH	ESI
  2603 0000197B 53                              	PUSH	EBX
  2604 0000197C 8D 5D D4                        	LEA	EBX,DWORD [-44+EBP]
  2605 0000197F 83 EC 20                        	SUB	ESP,32
  2606 00001982 E8 [00000000]                   	CALL	_task_now
  2607 00001987 89 C6                           	MOV	ESI,EAX
  2608 00001989 8B B8 000000A4                  	MOV	EDI,DWORD [164+EAX]
  2609 0000198F 83 C6 30                        	ADD	ESI,48
  2610 00001992 68 [0000014D]                   	PUSH	LC28
  2611 00001997 57                              	PUSH	EDI
  2612 00001998 E8 FFFFEBA6                     	CALL	_cons_putstr0
  2613 0000199D 8B 45 08                        	MOV	EAX,DWORD [8+EBP]
  2614 000019A0 FF 70 2C                        	PUSH	DWORD [44+EAX]
  2615 000019A3 68 [0000016A]                   	PUSH	LC29
  2616 000019A8 53                              	PUSH	EBX
  2617 000019A9 E8 [00000000]                   	CALL	_sprintf
  2618 000019AE 53                              	PUSH	EBX
  2619 000019AF 57                              	PUSH	EDI
  2620 000019B0 E8 FFFFEB8E                     	CALL	_cons_putstr0
  2621 000019B5 8D 65 F4                        	LEA	ESP,DWORD [-12+EBP]
  2622 000019B8 5B                              	POP	EBX
  2623 000019B9 89 F0                           	MOV	EAX,ESI
  2624 000019BB 5E                              	POP	ESI
  2625 000019BC 5F                              	POP	EDI
  2626 000019BD 5D                              	POP	EBP
  2627 000019BE C3                              	RET
  2628                                          [SECTION .data]
  2629 00000176                                 LC30:
  2630 00000176 0A 49 4E 54 20 30 44 20 3A 0A   	DB	0x0A,"INT 0D :",0x0A," General Protected Exception.",0x0A,0x00
       00000180 20 47 65 6E 65 72 61 6C 20 50 
       0000018A 72 6F 74 65 63 74 65 64 20 45 
       00000194 78 63 65 70 74 69 6F 6E 2E 0A 
       0000019E 00 
  2631                                          [SECTION .text]
  2632 000019BF                                 	GLOBAL	_inthandler0d
  2633 000019BF                                 _inthandler0d:
  2634 000019BF 55                              	PUSH	EBP
  2635 000019C0 89 E5                           	MOV	EBP,ESP
  2636 000019C2 57                              	PUSH	EDI
  2637 000019C3 56                              	PUSH	ESI
  2638 000019C4 53                              	PUSH	EBX
  2639 000019C5 8D 5D D4                        	LEA	EBX,DWORD [-44+EBP]
  2640 000019C8 83 EC 20                        	SUB	ESP,32
  2641 000019CB E8 [00000000]                   	CALL	_task_now
  2642 000019D0 89 C6                           	MOV	ESI,EAX
  2643 000019D2 8B B8 000000A4                  	MOV	EDI,DWORD [164+EAX]
  2644 000019D8 83 C6 30                        	ADD	ESI,48
  2645 000019DB 68 [00000176]                   	PUSH	LC30
  2646 000019E0 57                              	PUSH	EDI
  2647 000019E1 E8 FFFFEB5D                     	CALL	_cons_putstr0
  2648 000019E6 8B 45 08                        	MOV	EAX,DWORD [8+EBP]
  2649 000019E9 FF 70 2C                        	PUSH	DWORD [44+EAX]
  2650 000019EC 68 [0000016A]                   	PUSH	LC29
  2651 000019F1 53                              	PUSH	EBX
  2652 000019F2 E8 [00000000]                   	CALL	_sprintf
  2653 000019F7 53                              	PUSH	EBX
  2654 000019F8 57                              	PUSH	EDI
  2655 000019F9 E8 FFFFEB45                     	CALL	_cons_putstr0
  2656 000019FE 8D 65 F4                        	LEA	ESP,DWORD [-12+EBP]
  2657 00001A01 5B                              	POP	EBX
  2658 00001A02 89 F0                           	MOV	EAX,ESI
  2659 00001A04 5E                              	POP	ESI
  2660 00001A05 5F                              	POP	EDI
  2661 00001A06 5D                              	POP	EBP
  2662 00001A07 C3                              	RET
  2663 00001A08                                 	GLOBAL	_hrb_api_linewin
  2664 00001A08                                 _hrb_api_linewin:
  2665 00001A08 55                              	PUSH	EBP
  2666 00001A09 89 E5                           	MOV	EBP,ESP
  2667 00001A0B 57                              	PUSH	EDI
  2668 00001A0C 56                              	PUSH	ESI
  2669 00001A0D 53                              	PUSH	EBX
  2670 00001A0E 83 EC 0C                        	SUB	ESP,12
  2671 00001A11 8B 5D 0C                        	MOV	EBX,DWORD [12+EBP]
  2672 00001A14 8B 45 14                        	MOV	EAX,DWORD [20+EBP]
  2673 00001A17 89 D9                           	MOV	ECX,EBX
  2674 00001A19 8B 55 18                        	MOV	EDX,DWORD [24+EBP]
  2675 00001A1C C1 E1 0A                        	SAL	ECX,10
  2676 00001A1F 89 D7                           	MOV	EDI,EDX
  2677 00001A21 89 4D F0                        	MOV	DWORD [-16+EBP],ECX
  2678 00001A24 89 C6                           	MOV	ESI,EAX
  2679 00001A26 8B 4D 10                        	MOV	ECX,DWORD [16+EBP]
  2680 00001A29 2B 7D 10                        	SUB	EDI,DWORD [16+EBP]
  2681 00001A2C C1 E1 0A                        	SAL	ECX,10
  2682 00001A2F 29 DE                           	SUB	ESI,EBX
  2683 00001A31 89 4D EC                        	MOV	DWORD [-20+EBP],ECX
  2684 00001A34 0F 88 000000A3                  	JS	L597
  2685 00001A3A                                 L576:
  2686 00001A3A 85 FF                           	TEST	EDI,EDI
  2687 00001A3C 0F 88 00000094                  	JS	L598
  2688 00001A42                                 L577:
  2689 00001A42 39 FE                           	CMP	ESI,EDI
  2690 00001A44 7C 62                           	JL	L578
  2691 00001A46 8D 4E 01                        	LEA	ECX,DWORD [1+ESI]
  2692 00001A49 39 C3                           	CMP	EBX,EAX
  2693 00001A4B BE FFFFFC00                     	MOV	ESI,-1024
  2694 00001A50 7F 05                           	JG	L580
  2695 00001A52 BE 00000400                     	MOV	ESI,1024
  2696 00001A57                                 L580:
  2697 00001A57 39 55 10                        	CMP	DWORD [16+EBP],EDX
  2698 00001A5A 7F 46                           	JG	L581
  2699 00001A5C 2B 55 10                        	SUB	EDX,DWORD [16+EBP]
  2700 00001A5F 42                              	INC	EDX
  2701 00001A60                                 L596:
  2702 00001A60 C1 E2 0A                        	SAL	EDX,10
  2703 00001A63 89 D0                           	MOV	EAX,EDX
  2704 00001A65 99                              	CDQ
  2705 00001A66 F7 F9                           	IDIV	ECX
  2706 00001A68 89 C7                           	MOV	EDI,EAX
  2707 00001A6A                                 L583:
  2708 00001A6A 85 C9                           	TEST	ECX,ECX
  2709 00001A6C 7E 2C                           	JLE	L594
  2710 00001A6E 89 CB                           	MOV	EBX,ECX
  2711 00001A70                                 L592:
  2712 00001A70 8B 55 08                        	MOV	EDX,DWORD [8+EBP]
  2713 00001A73 8B 45 EC                        	MOV	EAX,DWORD [-20+EBP]
  2714 00001A76 C1 F8 0A                        	SAR	EAX,10
  2715 00001A79 8B 4D F0                        	MOV	ECX,DWORD [-16+EBP]
  2716 00001A7C 0F AF 42 04                     	IMUL	EAX,DWORD [4+EDX]
  2717 00001A80 C1 F9 0A                        	SAR	ECX,10
  2718 00001A83 89 4D E8                        	MOV	DWORD [-24+EBP],ECX
  2719 00001A86 8B 0A                           	MOV	ECX,DWORD [EDX]
  2720 00001A88 03 45 E8                        	ADD	EAX,DWORD [-24+EBP]
  2721 00001A8B 8A 55 1C                        	MOV	DL,BYTE [28+EBP]
  2722 00001A8E 88 14 08                        	MOV	BYTE [EAX+ECX*1],DL
  2723 00001A91 01 75 F0                        	ADD	DWORD [-16+EBP],ESI
  2724 00001A94 01 7D EC                        	ADD	DWORD [-20+EBP],EDI
  2725 00001A97 4B                              	DEC	EBX
  2726 00001A98 75 D6                           	JNE	L592
  2727 00001A9A                                 L594:
  2728 00001A9A 83 C4 0C                        	ADD	ESP,12
  2729 00001A9D 5B                              	POP	EBX
  2730 00001A9E 5E                              	POP	ESI
  2731 00001A9F 5F                              	POP	EDI
  2732 00001AA0 5D                              	POP	EBP
  2733 00001AA1 C3                              	RET
  2734 00001AA2                                 L581:
  2735 00001AA2 2B 55 10                        	SUB	EDX,DWORD [16+EBP]
  2736 00001AA5 4A                              	DEC	EDX
  2737 00001AA6 EB B8                           	JMP	L596
  2738 00001AA8                                 L578:
  2739 00001AA8 8D 4F 01                        	LEA	ECX,DWORD [1+EDI]
  2740 00001AAB 39 55 10                        	CMP	DWORD [16+EBP],EDX
  2741 00001AAE BF FFFFFC00                     	MOV	EDI,-1024
  2742 00001AB3 7F 05                           	JG	L585
  2743 00001AB5 BF 00000400                     	MOV	EDI,1024
  2744 00001ABA                                 L585:
  2745 00001ABA 39 C3                           	CMP	EBX,EAX
  2746 00001ABC 7F 11                           	JG	L586
  2747 00001ABE 29 D8                           	SUB	EAX,EBX
  2748 00001AC0 8D 50 01                        	LEA	EDX,DWORD [1+EAX]
  2749 00001AC3                                 L595:
  2750 00001AC3 C1 E2 0A                        	SAL	EDX,10
  2751 00001AC6 89 D0                           	MOV	EAX,EDX
  2752 00001AC8 99                              	CDQ
  2753 00001AC9 F7 F9                           	IDIV	ECX
  2754 00001ACB 89 C6                           	MOV	ESI,EAX
  2755 00001ACD EB 9B                           	JMP	L583
  2756 00001ACF                                 L586:
  2757 00001ACF 29 D8                           	SUB	EAX,EBX
  2758 00001AD1 8D 50 FF                        	LEA	EDX,DWORD [-1+EAX]
  2759 00001AD4 EB ED                           	JMP	L595
  2760 00001AD6                                 L598:
  2761 00001AD6 F7 DF                           	NEG	EDI
  2762 00001AD8 E9 FFFFFF65                     	JMP	L577
  2763 00001ADD                                 L597:
  2764 00001ADD F7 DE                           	NEG	ESI
  2765 00001ADF E9 FFFFFF56                     	JMP	L576
  2766 00001AE4                                 	GLOBAL	_allocClust
  2767 00001AE4                                 _allocClust:
  2768 00001AE4 55                              	PUSH	EBP
  2769 00001AE5 31 C0                           	XOR	EAX,EAX
  2770 00001AE7 89 E5                           	MOV	EBP,ESP
  2771 00001AE9 8B 55 08                        	MOV	EDX,DWORD [8+EBP]
  2772 00001AEC                                 L605:
  2773 00001AEC 83 3C 82 00                     	CMP	DWORD [EDX+EAX*4],0
  2774 00001AF0 74 0B                           	JE	L599
  2775 00001AF2 40                              	INC	EAX
  2776 00001AF3 3D 00000B3F                     	CMP	EAX,2879
  2777 00001AF8 7E F2                           	JLE	L605
  2778 00001AFA 83 C8 FF                        	OR	EAX,-1
  2779 00001AFD                                 L599:
  2780 00001AFD 5D                              	POP	EBP
  2781 00001AFE C3                              	RET
  2782 00001AFF                                 	GLOBAL	_initFinfo
  2783 00001AFF                                 _initFinfo:
  2784 00001AFF 55                              	PUSH	EBP
  2785 00001B00 89 E5                           	MOV	EBP,ESP
  2786 00001B02 8B 45 08                        	MOV	EAX,DWORD [8+EBP]
  2787 00001B05 C7 00 20202020                  	MOV	DWORD [EAX],538976288
  2788 00001B0B C7 40 04 20202020               	MOV	DWORD [4+EAX],538976288
  2789 00001B12 66 C7 40 08 2020                	MOV	WORD [8+EAX],8224
  2790 00001B18 C6 40 0A 20                     	MOV	BYTE [10+EAX],32
  2791 00001B1C C6 40 0B 20                     	MOV	BYTE [11+EAX],32
  2792 00001B20 C7 40 0C 00000000               	MOV	DWORD [12+EAX],0
  2793 00001B27 C7 40 10 00000000               	MOV	DWORD [16+EAX],0
  2794 00001B2E 66 C7 40 14 0000                	MOV	WORD [20+EAX],0
  2795 00001B34 66 C7 40 16 0000                	MOV	WORD [22+EAX],0
  2796 00001B3A 66 C7 40 18 0000                	MOV	WORD [24+EAX],0
  2797 00001B40 66 C7 40 1A FFFF                	MOV	WORD [26+EAX],-1
  2798 00001B46 C7 40 1C 00000000               	MOV	DWORD [28+EAX],0
  2799 00001B4D 5D                              	POP	EBP
  2800 00001B4E C3                              	RET
  2801 00001B4F                                 	GLOBAL	_capitalize
  2802 00001B4F                                 _capitalize:
  2803 00001B4F 55                              	PUSH	EBP
  2804 00001B50 31 C9                           	XOR	ECX,ECX
  2805 00001B52 89 E5                           	MOV	EBP,ESP
  2806 00001B54 56                              	PUSH	ESI
  2807 00001B55 53                              	PUSH	EBX
  2808 00001B56 8B 5D 0C                        	MOV	EBX,DWORD [12+EBP]
  2809 00001B59 8B 75 08                        	MOV	ESI,DWORD [8+EBP]
  2810 00001B5C 39 D9                           	CMP	ECX,EBX
  2811 00001B5E 7D 15                           	JGE	L617
  2812 00001B60                                 L615:
  2813 00001B60 8A 14 31                        	MOV	DL,BYTE [ECX+ESI*1]
  2814 00001B63 8D 42 9F                        	LEA	EAX,DWORD [-97+EDX]
  2815 00001B66 3C 19                           	CMP	AL,25
  2816 00001B68 77 06                           	JA	L612
  2817 00001B6A 8D 42 E0                        	LEA	EAX,DWORD [-32+EDX]
  2818 00001B6D 88 04 31                        	MOV	BYTE [ECX+ESI*1],AL
  2819 00001B70                                 L612:
  2820 00001B70 41                              	INC	ECX
  2821 00001B71 39 D9                           	CMP	ECX,EBX
  2822 00001B73 7C EB                           	JL	L615
  2823 00001B75                                 L617:
  2824 00001B75 5B                              	POP	EBX
  2825 00001B76 5E                              	POP	ESI
  2826 00001B77 5D                              	POP	EBP
  2827 00001B78 C3                              	RET
  2828 00001B79                                 	GLOBAL	_parent_info
  2829 00001B79                                 _parent_info:
  2830 00001B79 55                              	PUSH	EBP
  2831 00001B7A 89 E5                           	MOV	EBP,ESP
  2832 00001B7C 57                              	PUSH	EDI
  2833 00001B7D 56                              	PUSH	ESI
  2834 00001B7E BF 000000F4                     	MOV	EDI,244
  2835 00001B83 53                              	PUSH	EBX
  2836 00001B84 8B 75 08                        	MOV	ESI,DWORD [8+EBP]
  2837 00001B87                                 L619:
  2838 00001B87 6A 2F                           	PUSH	47
  2839 00001B89 FF 36                           	PUSH	DWORD [ESI]
  2840 00001B8B E8 FFFFF3A1                     	CALL	_strchr
  2841 00001B90 59                              	POP	ECX
  2842 00001B91 89 C3                           	MOV	EBX,EAX
  2843 00001B93 58                              	POP	EAX
  2844 00001B94 85 DB                           	TEST	EBX,EBX
  2845 00001B96 74 47                           	JE	L625
  2846 00001B98 C6 03 00                        	MOV	BYTE [EBX],0
  2847 00001B9B 57                              	PUSH	EDI
  2848 00001B9C 8B 45 10                        	MOV	EAX,DWORD [16+EBP]
  2849 00001B9F FF 30                           	PUSH	DWORD [EAX]
  2850 00001BA1 FF 36                           	PUSH	DWORD [ESI]
  2851 00001BA3 E8 [00000000]                   	CALL	_file_search
  2852 00001BA8 83 C4 0C                        	ADD	ESP,12
  2853 00001BAB 89 C2                           	MOV	EDX,EAX
  2854 00001BAD 85 C0                           	TEST	EAX,EAX
  2855 00001BAF 74 23                           	JE	L623
  2856 00001BB1 80 78 0B 10                     	CMP	BYTE [11+EAX],16
  2857 00001BB5 75 1D                           	JNE	L623
  2858 00001BB7 8D 43 01                        	LEA	EAX,DWORD [1+EBX]
  2859 00001BBA BF 00000010                     	MOV	EDI,16
  2860 00001BBF 89 06                           	MOV	DWORD [ESI],EAX
  2861 00001BC1 0F B7 42 1A                     	MOVZX	EAX,WORD [26+EDX]
  2862 00001BC5 C1 E0 09                        	SAL	EAX,9
  2863 00001BC8 8B 55 10                        	MOV	EDX,DWORD [16+EBP]
  2864 00001BCB 05 00103E00                     	ADD	EAX,1064448
  2865 00001BD0 89 02                           	MOV	DWORD [EDX],EAX
  2866 00001BD2 EB B3                           	JMP	L619
  2867 00001BD4                                 L623:
  2868 00001BD4 83 C8 FF                        	OR	EAX,-1
  2869 00001BD7                                 L618:
  2870 00001BD7 8D 65 F4                        	LEA	ESP,DWORD [-12+EBP]
  2871 00001BDA 5B                              	POP	EBX
  2872 00001BDB 5E                              	POP	ESI
  2873 00001BDC 5F                              	POP	EDI
  2874 00001BDD 5D                              	POP	EBP
  2875 00001BDE C3                              	RET
  2876 00001BDF                                 L625:
  2877 00001BDF 31 C0                           	XOR	EAX,EAX
  2878 00001BE1 EB F4                           	JMP	L618
